ARM GAS  C:\Users\rad1an\AppData\Local\Temp\cc46Ityd.s 			page 1


   1              		.syntax unified
   2              		.cpu cortex-m0
   3              		.fpu softvfp
   4              		.eabi_attribute 20, 1
   5              		.eabi_attribute 21, 1
   6              		.eabi_attribute 23, 3
   7              		.eabi_attribute 24, 1
   8              		.eabi_attribute 25, 1
   9              		.eabi_attribute 26, 1
  10              		.eabi_attribute 30, 1
  11              		.eabi_attribute 34, 0
  12              		.eabi_attribute 18, 4
  13              		.thumb
  14              		.syntax unified
  15              		.file	"cyfitter_cfg.c"
  16              		.text
  17              	.Ltext0:
  18              		.cfi_sections	.debug_frame
  19              		.section	.text.cfg_write_bytes32,"ax",%progbits
  20              		.align	2
  21              		.code	16
  22              		.thumb_func
  23              		.type	cfg_write_bytes32, %function
  24              	cfg_write_bytes32:
  25              	.LFB5:
  26              		.file 1 "Generated_Source\\PSoC4\\cyfitter_cfg.c"
   1:Generated_Source\PSoC4/cyfitter_cfg.c **** 
   2:Generated_Source\PSoC4/cyfitter_cfg.c **** /*******************************************************************************
   3:Generated_Source\PSoC4/cyfitter_cfg.c **** * File Name: cyfitter_cfg.c
   4:Generated_Source\PSoC4/cyfitter_cfg.c **** * 
   5:Generated_Source\PSoC4/cyfitter_cfg.c **** * PSoC Creator  4.4
   6:Generated_Source\PSoC4/cyfitter_cfg.c **** *
   7:Generated_Source\PSoC4/cyfitter_cfg.c **** * Description:
   8:Generated_Source\PSoC4/cyfitter_cfg.c **** * This file contains device initialization code.
   9:Generated_Source\PSoC4/cyfitter_cfg.c **** * Except for the user defined sections in CyClockStartupError(), this file should not be modified.
  10:Generated_Source\PSoC4/cyfitter_cfg.c **** * This file is automatically generated by PSoC Creator.
  11:Generated_Source\PSoC4/cyfitter_cfg.c **** *
  12:Generated_Source\PSoC4/cyfitter_cfg.c **** ********************************************************************************
  13:Generated_Source\PSoC4/cyfitter_cfg.c **** * Copyright (c) 2007-2020 Cypress Semiconductor.  All rights reserved.
  14:Generated_Source\PSoC4/cyfitter_cfg.c **** * You may use this file only in accordance with the license, terms, conditions, 
  15:Generated_Source\PSoC4/cyfitter_cfg.c **** * disclaimers, and limitations in the end user license agreement accompanying 
  16:Generated_Source\PSoC4/cyfitter_cfg.c **** * the software package with which this file was provided.
  17:Generated_Source\PSoC4/cyfitter_cfg.c **** ********************************************************************************/
  18:Generated_Source\PSoC4/cyfitter_cfg.c **** 
  19:Generated_Source\PSoC4/cyfitter_cfg.c **** #include <string.h>
  20:Generated_Source\PSoC4/cyfitter_cfg.c **** #include "cytypes.h"
  21:Generated_Source\PSoC4/cyfitter_cfg.c **** #include "cydevice_trm.h"
  22:Generated_Source\PSoC4/cyfitter_cfg.c **** #include "cyfitter.h"
  23:Generated_Source\PSoC4/cyfitter_cfg.c **** #include "CyLib.h"
  24:Generated_Source\PSoC4/cyfitter_cfg.c **** #include "CyLFClk.h"
  25:Generated_Source\PSoC4/cyfitter_cfg.c **** #include "cyfitter_cfg.h"
  26:Generated_Source\PSoC4/cyfitter_cfg.c **** #include "cyapicallbacks.h"
  27:Generated_Source\PSoC4/cyfitter_cfg.c **** 
  28:Generated_Source\PSoC4/cyfitter_cfg.c **** 
  29:Generated_Source\PSoC4/cyfitter_cfg.c **** #if defined(__GNUC__) || defined(__ARMCC_VERSION)
  30:Generated_Source\PSoC4/cyfitter_cfg.c ****     #define CYPACKED 
  31:Generated_Source\PSoC4/cyfitter_cfg.c ****     #define CYPACKED_ATTR __attribute__ ((packed))
ARM GAS  C:\Users\rad1an\AppData\Local\Temp\cc46Ityd.s 			page 2


  32:Generated_Source\PSoC4/cyfitter_cfg.c ****     #define CYALIGNED __attribute__ ((aligned))
  33:Generated_Source\PSoC4/cyfitter_cfg.c ****     #define CY_CFG_UNUSED __attribute__ ((unused))
  34:Generated_Source\PSoC4/cyfitter_cfg.c ****     #ifndef CY_CFG_SECTION
  35:Generated_Source\PSoC4/cyfitter_cfg.c ****         #define CY_CFG_SECTION __attribute__ ((section(".psocinit")))
  36:Generated_Source\PSoC4/cyfitter_cfg.c ****     #endif
  37:Generated_Source\PSoC4/cyfitter_cfg.c ****     
  38:Generated_Source\PSoC4/cyfitter_cfg.c ****     #if defined(__ARMCC_VERSION)
  39:Generated_Source\PSoC4/cyfitter_cfg.c ****         #define CY_CFG_MEMORY_BARRIER() __memory_changed()
  40:Generated_Source\PSoC4/cyfitter_cfg.c ****     #else
  41:Generated_Source\PSoC4/cyfitter_cfg.c ****         #define CY_CFG_MEMORY_BARRIER() __sync_synchronize()
  42:Generated_Source\PSoC4/cyfitter_cfg.c ****     #endif
  43:Generated_Source\PSoC4/cyfitter_cfg.c ****     
  44:Generated_Source\PSoC4/cyfitter_cfg.c **** #elif defined(__ICCARM__)
  45:Generated_Source\PSoC4/cyfitter_cfg.c ****     #include <intrinsics.h>
  46:Generated_Source\PSoC4/cyfitter_cfg.c **** 
  47:Generated_Source\PSoC4/cyfitter_cfg.c ****     #define CYPACKED __packed
  48:Generated_Source\PSoC4/cyfitter_cfg.c ****     #define CYPACKED_ATTR 
  49:Generated_Source\PSoC4/cyfitter_cfg.c ****     #define CYALIGNED _Pragma("data_alignment=4")
  50:Generated_Source\PSoC4/cyfitter_cfg.c ****     #define CY_CFG_UNUSED _Pragma("diag_suppress=Pe177")
  51:Generated_Source\PSoC4/cyfitter_cfg.c ****     #define CY_CFG_SECTION _Pragma("location=\".psocinit\"")
  52:Generated_Source\PSoC4/cyfitter_cfg.c ****     
  53:Generated_Source\PSoC4/cyfitter_cfg.c ****     #define CY_CFG_MEMORY_BARRIER() __DMB()
  54:Generated_Source\PSoC4/cyfitter_cfg.c ****     
  55:Generated_Source\PSoC4/cyfitter_cfg.c **** #else
  56:Generated_Source\PSoC4/cyfitter_cfg.c ****     #error Unsupported toolchain
  57:Generated_Source\PSoC4/cyfitter_cfg.c **** #endif
  58:Generated_Source\PSoC4/cyfitter_cfg.c **** 
  59:Generated_Source\PSoC4/cyfitter_cfg.c **** #ifndef CYCODE
  60:Generated_Source\PSoC4/cyfitter_cfg.c ****     #define CYCODE
  61:Generated_Source\PSoC4/cyfitter_cfg.c **** #endif
  62:Generated_Source\PSoC4/cyfitter_cfg.c **** #ifndef CYDATA
  63:Generated_Source\PSoC4/cyfitter_cfg.c ****     #define CYDATA
  64:Generated_Source\PSoC4/cyfitter_cfg.c **** #endif
  65:Generated_Source\PSoC4/cyfitter_cfg.c **** #ifndef CYFAR
  66:Generated_Source\PSoC4/cyfitter_cfg.c ****     #define CYFAR
  67:Generated_Source\PSoC4/cyfitter_cfg.c **** #endif
  68:Generated_Source\PSoC4/cyfitter_cfg.c **** #ifndef CYXDATA
  69:Generated_Source\PSoC4/cyfitter_cfg.c ****     #define CYXDATA
  70:Generated_Source\PSoC4/cyfitter_cfg.c **** #endif
  71:Generated_Source\PSoC4/cyfitter_cfg.c **** 
  72:Generated_Source\PSoC4/cyfitter_cfg.c **** 
  73:Generated_Source\PSoC4/cyfitter_cfg.c **** CY_CFG_UNUSED
  74:Generated_Source\PSoC4/cyfitter_cfg.c **** static void CYMEMZERO(void *s, size_t n);
  75:Generated_Source\PSoC4/cyfitter_cfg.c **** CY_CFG_UNUSED
  76:Generated_Source\PSoC4/cyfitter_cfg.c **** static void CYMEMZERO(void *s, size_t n)
  77:Generated_Source\PSoC4/cyfitter_cfg.c **** {
  78:Generated_Source\PSoC4/cyfitter_cfg.c **** 	(void)memset(s, 0, n);
  79:Generated_Source\PSoC4/cyfitter_cfg.c **** }
  80:Generated_Source\PSoC4/cyfitter_cfg.c **** CY_CFG_UNUSED
  81:Generated_Source\PSoC4/cyfitter_cfg.c **** static void CYCONFIGCPY(void *dest, const void *src, size_t n);
  82:Generated_Source\PSoC4/cyfitter_cfg.c **** CY_CFG_UNUSED
  83:Generated_Source\PSoC4/cyfitter_cfg.c **** static void CYCONFIGCPY(void *dest, const void *src, size_t n)
  84:Generated_Source\PSoC4/cyfitter_cfg.c **** {
  85:Generated_Source\PSoC4/cyfitter_cfg.c **** 	(void)memcpy(dest, src, n);
  86:Generated_Source\PSoC4/cyfitter_cfg.c **** }
  87:Generated_Source\PSoC4/cyfitter_cfg.c **** CY_CFG_UNUSED
  88:Generated_Source\PSoC4/cyfitter_cfg.c **** static void CYCONFIGCPYCODE(void *dest, const void *src, size_t n);
ARM GAS  C:\Users\rad1an\AppData\Local\Temp\cc46Ityd.s 			page 3


  89:Generated_Source\PSoC4/cyfitter_cfg.c **** CY_CFG_UNUSED
  90:Generated_Source\PSoC4/cyfitter_cfg.c **** static void CYCONFIGCPYCODE(void *dest, const void *src, size_t n)
  91:Generated_Source\PSoC4/cyfitter_cfg.c **** {
  92:Generated_Source\PSoC4/cyfitter_cfg.c **** 	(void)memcpy(dest, src, n);
  93:Generated_Source\PSoC4/cyfitter_cfg.c **** }
  94:Generated_Source\PSoC4/cyfitter_cfg.c **** 
  95:Generated_Source\PSoC4/cyfitter_cfg.c **** 
  96:Generated_Source\PSoC4/cyfitter_cfg.c **** 
  97:Generated_Source\PSoC4/cyfitter_cfg.c **** 
  98:Generated_Source\PSoC4/cyfitter_cfg.c **** /* Clock startup error codes                                                   */
  99:Generated_Source\PSoC4/cyfitter_cfg.c **** #define CYCLOCKSTART_NO_ERROR    0u
 100:Generated_Source\PSoC4/cyfitter_cfg.c **** #define CYCLOCKSTART_XTAL_ERROR  1u
 101:Generated_Source\PSoC4/cyfitter_cfg.c **** #define CYCLOCKSTART_32KHZ_ERROR 2u
 102:Generated_Source\PSoC4/cyfitter_cfg.c **** #define CYCLOCKSTART_PLL_ERROR   3u
 103:Generated_Source\PSoC4/cyfitter_cfg.c **** #define CYCLOCKSTART_FLL_ERROR   4u
 104:Generated_Source\PSoC4/cyfitter_cfg.c **** #define CYCLOCKSTART_WCO_ERROR   5u
 105:Generated_Source\PSoC4/cyfitter_cfg.c **** 
 106:Generated_Source\PSoC4/cyfitter_cfg.c **** 
 107:Generated_Source\PSoC4/cyfitter_cfg.c **** #ifdef CY_NEED_CYCLOCKSTARTUPERROR
 108:Generated_Source\PSoC4/cyfitter_cfg.c **** /*******************************************************************************
 109:Generated_Source\PSoC4/cyfitter_cfg.c **** * Function Name: CyClockStartupError
 110:Generated_Source\PSoC4/cyfitter_cfg.c **** ********************************************************************************
 111:Generated_Source\PSoC4/cyfitter_cfg.c **** * Summary:
 112:Generated_Source\PSoC4/cyfitter_cfg.c **** *  If an error is encountered during clock configuration (crystal startup error,
 113:Generated_Source\PSoC4/cyfitter_cfg.c **** *  PLL lock error, etc.), the system will end up here.  Unless reimplemented by
 114:Generated_Source\PSoC4/cyfitter_cfg.c **** *  the customer, this function will stop in an infinite loop.
 115:Generated_Source\PSoC4/cyfitter_cfg.c **** *
 116:Generated_Source\PSoC4/cyfitter_cfg.c **** * Parameters:
 117:Generated_Source\PSoC4/cyfitter_cfg.c **** *   void
 118:Generated_Source\PSoC4/cyfitter_cfg.c **** *
 119:Generated_Source\PSoC4/cyfitter_cfg.c **** * Return:
 120:Generated_Source\PSoC4/cyfitter_cfg.c **** *   void
 121:Generated_Source\PSoC4/cyfitter_cfg.c **** *
 122:Generated_Source\PSoC4/cyfitter_cfg.c **** *******************************************************************************/
 123:Generated_Source\PSoC4/cyfitter_cfg.c **** CY_CFG_UNUSED
 124:Generated_Source\PSoC4/cyfitter_cfg.c **** static void CyClockStartupError(uint8 errorCode);
 125:Generated_Source\PSoC4/cyfitter_cfg.c **** CY_CFG_UNUSED
 126:Generated_Source\PSoC4/cyfitter_cfg.c **** static void CyClockStartupError(uint8 errorCode)
 127:Generated_Source\PSoC4/cyfitter_cfg.c **** {
 128:Generated_Source\PSoC4/cyfitter_cfg.c ****     /* To remove the compiler warning if errorCode not used.                */
 129:Generated_Source\PSoC4/cyfitter_cfg.c ****     errorCode = errorCode;
 130:Generated_Source\PSoC4/cyfitter_cfg.c **** 
 131:Generated_Source\PSoC4/cyfitter_cfg.c ****     /* If we have a clock startup error (bad MHz crystal, PLL lock, etc.),  */
 132:Generated_Source\PSoC4/cyfitter_cfg.c ****     /* we will end up here to allow the customer to implement something to  */
 133:Generated_Source\PSoC4/cyfitter_cfg.c ****     /* deal with the clock condition.                                       */
 134:Generated_Source\PSoC4/cyfitter_cfg.c **** 
 135:Generated_Source\PSoC4/cyfitter_cfg.c **** #ifdef CY_CFG_CLOCK_STARTUP_ERROR_CALLBACK
 136:Generated_Source\PSoC4/cyfitter_cfg.c ****     CY_CFG_Clock_Startup_ErrorCallback();
 137:Generated_Source\PSoC4/cyfitter_cfg.c **** #else
 138:Generated_Source\PSoC4/cyfitter_cfg.c ****     /*  If not using CY_CFG_CLOCK_STARTUP_ERROR_CALLBACK, place your clock startup code here. */
 139:Generated_Source\PSoC4/cyfitter_cfg.c ****     /* `#START CyClockStartupError` */
 140:Generated_Source\PSoC4/cyfitter_cfg.c **** 
 141:Generated_Source\PSoC4/cyfitter_cfg.c **** 
 142:Generated_Source\PSoC4/cyfitter_cfg.c **** 
 143:Generated_Source\PSoC4/cyfitter_cfg.c ****     /* `#END` */
 144:Generated_Source\PSoC4/cyfitter_cfg.c **** 
 145:Generated_Source\PSoC4/cyfitter_cfg.c ****     while(1) {}
ARM GAS  C:\Users\rad1an\AppData\Local\Temp\cc46Ityd.s 			page 4


 146:Generated_Source\PSoC4/cyfitter_cfg.c **** #endif /* CY_CFG_CLOCK_STARTUP_ERROR_CALLBACK */
 147:Generated_Source\PSoC4/cyfitter_cfg.c **** }
 148:Generated_Source\PSoC4/cyfitter_cfg.c **** #endif
 149:Generated_Source\PSoC4/cyfitter_cfg.c **** 
 150:Generated_Source\PSoC4/cyfitter_cfg.c **** #define CY_CFG_BASE_ADDR_COUNT 8u
 151:Generated_Source\PSoC4/cyfitter_cfg.c **** CYPACKED typedef struct
 152:Generated_Source\PSoC4/cyfitter_cfg.c **** {
 153:Generated_Source\PSoC4/cyfitter_cfg.c **** 	uint8 offset;
 154:Generated_Source\PSoC4/cyfitter_cfg.c **** 	uint8 value;
 155:Generated_Source\PSoC4/cyfitter_cfg.c **** } CYPACKED_ATTR cy_cfg_addrvalue_t;
 156:Generated_Source\PSoC4/cyfitter_cfg.c **** 
 157:Generated_Source\PSoC4/cyfitter_cfg.c **** 
 158:Generated_Source\PSoC4/cyfitter_cfg.c **** 
 159:Generated_Source\PSoC4/cyfitter_cfg.c **** /*******************************************************************************
 160:Generated_Source\PSoC4/cyfitter_cfg.c **** * Function Name: cfg_write_bytes32
 161:Generated_Source\PSoC4/cyfitter_cfg.c **** ********************************************************************************
 162:Generated_Source\PSoC4/cyfitter_cfg.c **** * Summary:
 163:Generated_Source\PSoC4/cyfitter_cfg.c **** *  This function is used for setting up the chip configuration areas that
 164:Generated_Source\PSoC4/cyfitter_cfg.c **** *  contain relatively sparse data.
 165:Generated_Source\PSoC4/cyfitter_cfg.c **** *
 166:Generated_Source\PSoC4/cyfitter_cfg.c **** * Parameters:
 167:Generated_Source\PSoC4/cyfitter_cfg.c **** *   void
 168:Generated_Source\PSoC4/cyfitter_cfg.c **** *
 169:Generated_Source\PSoC4/cyfitter_cfg.c **** * Return:
 170:Generated_Source\PSoC4/cyfitter_cfg.c **** *   void
 171:Generated_Source\PSoC4/cyfitter_cfg.c **** *
 172:Generated_Source\PSoC4/cyfitter_cfg.c **** *******************************************************************************/
 173:Generated_Source\PSoC4/cyfitter_cfg.c **** static void cfg_write_bytes32(const uint32 addr_table[], const cy_cfg_addrvalue_t data_table[]);
 174:Generated_Source\PSoC4/cyfitter_cfg.c **** static void cfg_write_bytes32(const uint32 addr_table[], const cy_cfg_addrvalue_t data_table[])
 175:Generated_Source\PSoC4/cyfitter_cfg.c **** {
  27              		.loc 1 175 0
  28              		.cfi_startproc
  29              		@ args = 0, pretend = 0, frame = 0
  30              		@ frame_needed = 0, uses_anonymous_args = 0
  31              	.LVL0:
  32 0000 F0B5     		push	{r4, r5, r6, r7, lr}
  33              		.cfi_def_cfa_offset 20
  34              		.cfi_offset 4, -20
  35              		.cfi_offset 5, -16
  36              		.cfi_offset 6, -12
  37              		.cfi_offset 7, -8
  38              		.cfi_offset 14, -4
  39              	.LVL1:
 176:Generated_Source\PSoC4/cyfitter_cfg.c **** 	/* For 32-bit little-endian architectures */
 177:Generated_Source\PSoC4/cyfitter_cfg.c **** 	uint32 i, j = 0u;
  40              		.loc 1 177 0
  41 0002 0025     		movs	r5, #0
 178:Generated_Source\PSoC4/cyfitter_cfg.c **** 	for (i = 0u; i < CY_CFG_BASE_ADDR_COUNT; i++)
  42              		.loc 1 178 0
  43 0004 0027     		movs	r7, #0
  44 0006 11E0     		b	.L2
  45              	.LVL2:
  46              	.L5:
  47              	.LBB2:
 179:Generated_Source\PSoC4/cyfitter_cfg.c **** 	{
 180:Generated_Source\PSoC4/cyfitter_cfg.c **** 		uint32 baseAddr = addr_table[i];
  48              		.loc 1 180 0
ARM GAS  C:\Users\rad1an\AppData\Local\Temp\cc46Ityd.s 			page 5


  49 0008 BB00     		lsls	r3, r7, #2
  50 000a C658     		ldr	r6, [r0, r3]
  51              	.LVL3:
 181:Generated_Source\PSoC4/cyfitter_cfg.c **** 		uint8 count = (uint8)baseAddr;
  52              		.loc 1 181 0
  53 000c F3B2     		uxtb	r3, r6
  54              	.LVL4:
 182:Generated_Source\PSoC4/cyfitter_cfg.c **** 		baseAddr &= 0xFFFFFF00u;
  55              		.loc 1 182 0
  56 000e FF22     		movs	r2, #255
  57 0010 9643     		bics	r6, r2
  58              	.LVL5:
 183:Generated_Source\PSoC4/cyfitter_cfg.c **** 		while (count != 0u)
  59              		.loc 1 183 0
  60 0012 08E0     		b	.L3
  61              	.L4:
 184:Generated_Source\PSoC4/cyfitter_cfg.c **** 		{
 185:Generated_Source\PSoC4/cyfitter_cfg.c **** 			CY_SET_REG8((void *)(baseAddr + data_table[j].offset), data_table[j].value);
  62              		.loc 1 185 0
  63 0014 6A00     		lsls	r2, r5, #1
  64 0016 8A18     		adds	r2, r1, r2
  65 0018 1478     		ldrb	r4, [r2]
  66 001a A419     		adds	r4, r4, r6
  67 001c 5278     		ldrb	r2, [r2, #1]
  68 001e 2270     		strb	r2, [r4]
 186:Generated_Source\PSoC4/cyfitter_cfg.c **** 			j++;
  69              		.loc 1 186 0
  70 0020 0135     		adds	r5, r5, #1
  71              	.LVL6:
 187:Generated_Source\PSoC4/cyfitter_cfg.c **** 			count--;
  72              		.loc 1 187 0
  73 0022 013B     		subs	r3, r3, #1
  74              	.LVL7:
  75 0024 DBB2     		uxtb	r3, r3
  76              	.LVL8:
  77              	.L3:
 183:Generated_Source\PSoC4/cyfitter_cfg.c **** 		{
  78              		.loc 1 183 0
  79 0026 002B     		cmp	r3, #0
  80 0028 F4D1     		bne	.L4
  81              	.LBE2:
 178:Generated_Source\PSoC4/cyfitter_cfg.c **** 	{
  82              		.loc 1 178 0 discriminator 2
  83 002a 0137     		adds	r7, r7, #1
  84              	.LVL9:
  85              	.L2:
 178:Generated_Source\PSoC4/cyfitter_cfg.c **** 	{
  86              		.loc 1 178 0 is_stmt 0 discriminator 1
  87 002c 072F     		cmp	r7, #7
  88 002e EBD9     		bls	.L5
 188:Generated_Source\PSoC4/cyfitter_cfg.c **** 		}
 189:Generated_Source\PSoC4/cyfitter_cfg.c **** 	}
 190:Generated_Source\PSoC4/cyfitter_cfg.c **** }
  89              		.loc 1 190 0 is_stmt 1
  90              		@ sp needed
  91              	.LVL10:
  92              	.LVL11:
ARM GAS  C:\Users\rad1an\AppData\Local\Temp\cc46Ityd.s 			page 6


  93 0030 F0BD     		pop	{r4, r5, r6, r7, pc}
  94              		.cfi_endproc
  95              	.LFE5:
  96              		.size	cfg_write_bytes32, .-cfg_write_bytes32
  97 0032 C046     		.section	.text.AnalogSetDefault,"ax",%progbits
  98              		.align	2
  99              		.code	16
 100              		.thumb_func
 101              		.type	AnalogSetDefault, %function
 102              	AnalogSetDefault:
 103              	.LFB7:
 191:Generated_Source\PSoC4/cyfitter_cfg.c **** 
 192:Generated_Source\PSoC4/cyfitter_cfg.c **** 
 193:Generated_Source\PSoC4/cyfitter_cfg.c **** /*******************************************************************************
 194:Generated_Source\PSoC4/cyfitter_cfg.c **** * Function Name: ClockSetup
 195:Generated_Source\PSoC4/cyfitter_cfg.c **** ********************************************************************************
 196:Generated_Source\PSoC4/cyfitter_cfg.c **** *
 197:Generated_Source\PSoC4/cyfitter_cfg.c **** * Summary:
 198:Generated_Source\PSoC4/cyfitter_cfg.c **** *   Performs the initialization of all of the clocks in the device based on the
 199:Generated_Source\PSoC4/cyfitter_cfg.c **** *   settings in the Clock tab of the DWR.  This includes enabling the requested
 200:Generated_Source\PSoC4/cyfitter_cfg.c **** *   clocks and setting the necessary dividers to produce the desired frequency. 
 201:Generated_Source\PSoC4/cyfitter_cfg.c **** *
 202:Generated_Source\PSoC4/cyfitter_cfg.c **** * Parameters:
 203:Generated_Source\PSoC4/cyfitter_cfg.c **** *   void
 204:Generated_Source\PSoC4/cyfitter_cfg.c **** *
 205:Generated_Source\PSoC4/cyfitter_cfg.c **** * Return:
 206:Generated_Source\PSoC4/cyfitter_cfg.c **** *   void
 207:Generated_Source\PSoC4/cyfitter_cfg.c **** *
 208:Generated_Source\PSoC4/cyfitter_cfg.c **** *******************************************************************************/
 209:Generated_Source\PSoC4/cyfitter_cfg.c **** static void ClockSetup(void);
 210:Generated_Source\PSoC4/cyfitter_cfg.c **** CY_CFG_SECTION
 211:Generated_Source\PSoC4/cyfitter_cfg.c **** static void ClockSetup(void)
 212:Generated_Source\PSoC4/cyfitter_cfg.c **** {
 213:Generated_Source\PSoC4/cyfitter_cfg.c **** 
 214:Generated_Source\PSoC4/cyfitter_cfg.c **** 	/* Set Flash Cycles based on max possible frequency in case a glitch occurs during ClockSetup(). *
 215:Generated_Source\PSoC4/cyfitter_cfg.c **** 	CY_SET_REG32((void CYXDATA *)(CYREG_CPUSS_FLASH_CTL), (0x0012u));
 216:Generated_Source\PSoC4/cyfitter_cfg.c **** 
 217:Generated_Source\PSoC4/cyfitter_cfg.c **** 	/* Start the WCO */
 218:Generated_Source\PSoC4/cyfitter_cfg.c **** 	CySysClkWcoStart();
 219:Generated_Source\PSoC4/cyfitter_cfg.c **** 	(void)CySysClkWcoSetPowerMode(CY_SYS_CLK_WCO_LPM);    /* Switch to the low power mode */
 220:Generated_Source\PSoC4/cyfitter_cfg.c **** 
 221:Generated_Source\PSoC4/cyfitter_cfg.c **** 	/* Setup and trim IMO based on desired frequency. */
 222:Generated_Source\PSoC4/cyfitter_cfg.c **** 	CySysClkWriteImoFreq(24u);
 223:Generated_Source\PSoC4/cyfitter_cfg.c **** 	/* CYDEV_CLK_ILO_CONFIG Starting address: CYDEV_CLK_ILO_CONFIG */
 224:Generated_Source\PSoC4/cyfitter_cfg.c **** 	CY_SET_REG32((void *)(CYREG_CLK_ILO_CONFIG), 0x80000006u);
 225:Generated_Source\PSoC4/cyfitter_cfg.c **** 
 226:Generated_Source\PSoC4/cyfitter_cfg.c **** 
 227:Generated_Source\PSoC4/cyfitter_cfg.c **** 	/* Enable fast start mode for XO */
 228:Generated_Source\PSoC4/cyfitter_cfg.c **** 	CY_SET_REG32((void*)CYREG_BLE_BLERD_BB_XO, CY_GET_REG32((void*)CYREG_BLE_BLERD_BB_XO) | (uint32)0x
 229:Generated_Source\PSoC4/cyfitter_cfg.c **** 	CY_SET_REG32((void *)(CYREG_BLE_BLERD_BB_XO_CAPTRIM), 0x00003E2Du);
 230:Generated_Source\PSoC4/cyfitter_cfg.c **** 	/*Set XTAL(ECO) divider*/
 231:Generated_Source\PSoC4/cyfitter_cfg.c **** 	CY_SET_REG32((void *)(CYREG_BLE_BLESS_XTAL_CLK_DIV_CONFIG), 0x00000000u);
 232:Generated_Source\PSoC4/cyfitter_cfg.c **** 	/* Disable Crystal Stable Interrupt before enabling ECO */
 233:Generated_Source\PSoC4/cyfitter_cfg.c **** 	CY_SET_REG32((void*)CYREG_BLE_BLESS_LL_DSM_CTRL, CY_GET_REG32((void*)CYREG_BLE_BLESS_LL_DSM_CTRL) 
 234:Generated_Source\PSoC4/cyfitter_cfg.c **** 	/* Start the ECO and do not check status since it is not needed for HFCLK */
 235:Generated_Source\PSoC4/cyfitter_cfg.c **** 	(void)CySysClkEcoStart(2000u);
 236:Generated_Source\PSoC4/cyfitter_cfg.c **** 	CyDelayUs(1500u); /* Wait to stabilize */
ARM GAS  C:\Users\rad1an\AppData\Local\Temp\cc46Ityd.s 			page 7


 237:Generated_Source\PSoC4/cyfitter_cfg.c **** 
 238:Generated_Source\PSoC4/cyfitter_cfg.c **** 	/* Setup phase aligned clocks */
 239:Generated_Source\PSoC4/cyfitter_cfg.c **** 	CY_SET_REG32((void *)CYREG_PERI_DIV_16_CTL1, 0x00EA5F00u);
 240:Generated_Source\PSoC4/cyfitter_cfg.c **** 	CY_SET_REG32((void *)CYREG_PERI_DIV_CMD, 0x8000FF41u);
 241:Generated_Source\PSoC4/cyfitter_cfg.c **** 	CY_SET_REG32((void *)CYREG_PERI_DIV_16_CTL0, 0x00000200u);
 242:Generated_Source\PSoC4/cyfitter_cfg.c **** 	CY_SET_REG32((void *)CYREG_PERI_DIV_CMD, 0x8000FF40u);
 243:Generated_Source\PSoC4/cyfitter_cfg.c **** 
 244:Generated_Source\PSoC4/cyfitter_cfg.c **** 	/* CYDEV_CLK_IMO_CONFIG Starting address: CYDEV_CLK_IMO_CONFIG */
 245:Generated_Source\PSoC4/cyfitter_cfg.c **** 	CY_SET_REG32((void *)(CYREG_CLK_IMO_CONFIG), 0x80000000u);
 246:Generated_Source\PSoC4/cyfitter_cfg.c **** 
 247:Generated_Source\PSoC4/cyfitter_cfg.c **** 	/* CYDEV_CLK_SELECT Starting address: CYDEV_CLK_SELECT */
 248:Generated_Source\PSoC4/cyfitter_cfg.c **** 	CY_SET_REG32((void *)(CYREG_CLK_SELECT), 0x00000000u);
 249:Generated_Source\PSoC4/cyfitter_cfg.c **** 
 250:Generated_Source\PSoC4/cyfitter_cfg.c **** 	/* CYDEV_PERI_PCLK_CTL14 Starting address: CYDEV_PERI_PCLK_CTL14 */
 251:Generated_Source\PSoC4/cyfitter_cfg.c **** 	CY_SET_REG32((void *)(CYREG_PERI_PCLK_CTL14), 0x00000041u);
 252:Generated_Source\PSoC4/cyfitter_cfg.c **** 
 253:Generated_Source\PSoC4/cyfitter_cfg.c **** 	/* CYDEV_PERI_PCLK_CTL12 Starting address: CYDEV_PERI_PCLK_CTL12 */
 254:Generated_Source\PSoC4/cyfitter_cfg.c **** 	CY_SET_REG32((void *)(CYREG_PERI_PCLK_CTL12), 0x00000040u);
 255:Generated_Source\PSoC4/cyfitter_cfg.c **** 
 256:Generated_Source\PSoC4/cyfitter_cfg.c **** 	(void)CyIntSetVector(8u, &CySysWdtIsr);
 257:Generated_Source\PSoC4/cyfitter_cfg.c **** 	CyIntEnable(8u);
 258:Generated_Source\PSoC4/cyfitter_cfg.c **** 	CY_SET_REG32((void *)(CYREG_WDT_MATCH), 0x01FF0000u);
 259:Generated_Source\PSoC4/cyfitter_cfg.c **** 	CY_SET_REG32((void *)(CYREG_WDT_CONFIG), 0x00000700u);
 260:Generated_Source\PSoC4/cyfitter_cfg.c **** 	CY_SET_REG32((void *)(CYREG_WDT_CONTROL), 0x00000800u);
 261:Generated_Source\PSoC4/cyfitter_cfg.c **** 	while ((CY_GET_XTND_REG32((void CYFAR *)(CYREG_WDT_CONTROL)) & 0x00000800u) != 0u) { }
 262:Generated_Source\PSoC4/cyfitter_cfg.c **** 	CY_SET_REG32((void *)(CYREG_WDT_CONTROL), 0x00000100u);
 263:Generated_Source\PSoC4/cyfitter_cfg.c **** 	/* Set Flash Cycles based on newly configured 24.00MHz HFCLK. */
 264:Generated_Source\PSoC4/cyfitter_cfg.c **** 	CY_SET_REG32((void CYXDATA *)(CYREG_CPUSS_FLASH_CTL), (0x0011u));
 265:Generated_Source\PSoC4/cyfitter_cfg.c **** }
 266:Generated_Source\PSoC4/cyfitter_cfg.c **** 
 267:Generated_Source\PSoC4/cyfitter_cfg.c **** 
 268:Generated_Source\PSoC4/cyfitter_cfg.c **** /* Analog API Functions */
 269:Generated_Source\PSoC4/cyfitter_cfg.c **** 
 270:Generated_Source\PSoC4/cyfitter_cfg.c **** 
 271:Generated_Source\PSoC4/cyfitter_cfg.c **** /*******************************************************************************
 272:Generated_Source\PSoC4/cyfitter_cfg.c **** * Function Name: AnalogSetDefault
 273:Generated_Source\PSoC4/cyfitter_cfg.c **** ********************************************************************************
 274:Generated_Source\PSoC4/cyfitter_cfg.c **** *
 275:Generated_Source\PSoC4/cyfitter_cfg.c **** * Summary:
 276:Generated_Source\PSoC4/cyfitter_cfg.c **** *  Sets up the analog portions of the chip to default values based on chip
 277:Generated_Source\PSoC4/cyfitter_cfg.c **** *  configuration options from the project.
 278:Generated_Source\PSoC4/cyfitter_cfg.c **** *
 279:Generated_Source\PSoC4/cyfitter_cfg.c **** * Parameters:
 280:Generated_Source\PSoC4/cyfitter_cfg.c **** *  void
 281:Generated_Source\PSoC4/cyfitter_cfg.c **** *
 282:Generated_Source\PSoC4/cyfitter_cfg.c **** * Return:
 283:Generated_Source\PSoC4/cyfitter_cfg.c **** *  void
 284:Generated_Source\PSoC4/cyfitter_cfg.c **** *
 285:Generated_Source\PSoC4/cyfitter_cfg.c **** *******************************************************************************/
 286:Generated_Source\PSoC4/cyfitter_cfg.c **** static void AnalogSetDefault(void);
 287:Generated_Source\PSoC4/cyfitter_cfg.c **** static void AnalogSetDefault(void)
 288:Generated_Source\PSoC4/cyfitter_cfg.c **** {
 104              		.loc 1 288 0
 105              		.cfi_startproc
 106              		@ args = 0, pretend = 0, frame = 0
 107              		@ frame_needed = 0, uses_anonymous_args = 0
 108              		@ link register save eliminated.
ARM GAS  C:\Users\rad1an\AppData\Local\Temp\cc46Ityd.s 			page 8


 289:Generated_Source\PSoC4/cyfitter_cfg.c **** 	CY_SET_XTND_REG32((void CYFAR *)CYREG_CTBM0_DFT_CTRL, 0x00000003u);
 109              		.loc 1 289 0
 110 0000 0323     		movs	r3, #3
 111 0002 044A     		ldr	r2, .L7
 112 0004 1360     		str	r3, [r2]
 290:Generated_Source\PSoC4/cyfitter_cfg.c **** 	CY_SET_XTND_REG32((void CYFAR *)CYREG_CTBM1_DFT_CTRL, 0x00000003u);
 113              		.loc 1 290 0
 114 0006 044A     		ldr	r2, .L7+4
 115 0008 1360     		str	r3, [r2]
 291:Generated_Source\PSoC4/cyfitter_cfg.c **** 	CY_SET_XTND_REG32((void CYFAR *)CYREG_PASS_DSAB_DSAB_CTRL, 0x00000000u);
 116              		.loc 1 291 0
 117 000a 0022     		movs	r2, #0
 118 000c 034B     		ldr	r3, .L7+8
 119 000e 1A60     		str	r2, [r3]
 292:Generated_Source\PSoC4/cyfitter_cfg.c **** }
 120              		.loc 1 292 0
 121              		@ sp needed
 122 0010 7047     		bx	lr
 123              	.L8:
 124 0012 C046     		.align	2
 125              	.L7:
 126 0014 30003040 		.word	1076887600
 127 0018 30003140 		.word	1076953136
 128 001c 000E3F40 		.word	1077874176
 129              		.cfi_endproc
 130              	.LFE7:
 131              		.size	AnalogSetDefault, .-AnalogSetDefault
 132              		.section	.text.CYMEMZERO,"ax",%progbits
 133              		.align	2
 134              		.code	16
 135              		.thumb_func
 136              		.type	CYMEMZERO, %function
 137              	CYMEMZERO:
 138              	.LFB2:
  77:Generated_Source\PSoC4/cyfitter_cfg.c **** 	(void)memset(s, 0, n);
 139              		.loc 1 77 0
 140              		.cfi_startproc
 141              		@ args = 0, pretend = 0, frame = 0
 142              		@ frame_needed = 0, uses_anonymous_args = 0
 143              	.LVL12:
 144 0000 10B5     		push	{r4, lr}
 145              		.cfi_def_cfa_offset 8
 146              		.cfi_offset 4, -8
 147              		.cfi_offset 14, -4
 148 0002 0A00     		movs	r2, r1
  78:Generated_Source\PSoC4/cyfitter_cfg.c **** }
 149              		.loc 1 78 0
 150 0004 0021     		movs	r1, #0
 151              	.LVL13:
 152 0006 FFF7FEFF 		bl	memset
 153              	.LVL14:
  79:Generated_Source\PSoC4/cyfitter_cfg.c **** CY_CFG_UNUSED
 154              		.loc 1 79 0
 155              		@ sp needed
 156 000a 10BD     		pop	{r4, pc}
 157              		.cfi_endproc
 158              	.LFE2:
ARM GAS  C:\Users\rad1an\AppData\Local\Temp\cc46Ityd.s 			page 9


 159              		.size	CYMEMZERO, .-CYMEMZERO
 160              		.section	.text.CYCONFIGCPYCODE,"ax",%progbits
 161              		.align	2
 162              		.code	16
 163              		.thumb_func
 164              		.type	CYCONFIGCPYCODE, %function
 165              	CYCONFIGCPYCODE:
 166              	.LFB4:
  91:Generated_Source\PSoC4/cyfitter_cfg.c **** 	(void)memcpy(dest, src, n);
 167              		.loc 1 91 0
 168              		.cfi_startproc
 169              		@ args = 0, pretend = 0, frame = 0
 170              		@ frame_needed = 0, uses_anonymous_args = 0
 171              	.LVL15:
 172 0000 10B5     		push	{r4, lr}
 173              		.cfi_def_cfa_offset 8
 174              		.cfi_offset 4, -8
 175              		.cfi_offset 14, -4
  92:Generated_Source\PSoC4/cyfitter_cfg.c **** }
 176              		.loc 1 92 0
 177 0002 FFF7FEFF 		bl	memcpy
 178              	.LVL16:
  93:Generated_Source\PSoC4/cyfitter_cfg.c **** 
 179              		.loc 1 93 0
 180              		@ sp needed
 181 0006 10BD     		pop	{r4, pc}
 182              		.cfi_endproc
 183              	.LFE4:
 184              		.size	CYCONFIGCPYCODE, .-CYCONFIGCPYCODE
 185              		.section	.psocinit,"ax",%progbits
 186              		.align	2
 187              		.code	16
 188              		.thumb_func
 189              		.type	ClockSetup, %function
 190              	ClockSetup:
 191              	.LFB6:
 212:Generated_Source\PSoC4/cyfitter_cfg.c **** 
 192              		.loc 1 212 0
 193              		.cfi_startproc
 194              		@ args = 0, pretend = 0, frame = 0
 195              		@ frame_needed = 0, uses_anonymous_args = 0
 196 0000 10B5     		push	{r4, lr}
 197              		.cfi_def_cfa_offset 8
 198              		.cfi_offset 4, -8
 199              		.cfi_offset 14, -4
 215:Generated_Source\PSoC4/cyfitter_cfg.c **** 
 200              		.loc 1 215 0
 201 0002 1222     		movs	r2, #18
 202 0004 2C4B     		ldr	r3, .L13
 203 0006 1A60     		str	r2, [r3]
 218:Generated_Source\PSoC4/cyfitter_cfg.c **** 	(void)CySysClkWcoSetPowerMode(CY_SYS_CLK_WCO_LPM);    /* Switch to the low power mode */
 204              		.loc 1 218 0
 205 0008 FFF7FEFF 		bl	CySysClkWcoStart
 206              	.LVL17:
 219:Generated_Source\PSoC4/cyfitter_cfg.c **** 
 207              		.loc 1 219 0
 208 000c 0120     		movs	r0, #1
ARM GAS  C:\Users\rad1an\AppData\Local\Temp\cc46Ityd.s 			page 10


 209 000e FFF7FEFF 		bl	CySysClkWcoSetPowerMode
 210              	.LVL18:
 222:Generated_Source\PSoC4/cyfitter_cfg.c **** 	/* CYDEV_CLK_ILO_CONFIG Starting address: CYDEV_CLK_ILO_CONFIG */
 211              		.loc 1 222 0
 212 0012 1820     		movs	r0, #24
 213 0014 FFF7FEFF 		bl	CySysClkWriteImoFreq
 214              	.LVL19:
 224:Generated_Source\PSoC4/cyfitter_cfg.c **** 
 215              		.loc 1 224 0
 216 0018 284A     		ldr	r2, .L13+4
 217 001a 294B     		ldr	r3, .L13+8
 218 001c 1A60     		str	r2, [r3]
 228:Generated_Source\PSoC4/cyfitter_cfg.c **** 	CY_SET_REG32((void *)(CYREG_BLE_BLERD_BB_XO_CAPTRIM), 0x00003E2Du);
 219              		.loc 1 228 0
 220 001e 294A     		ldr	r2, .L13+12
 221 0020 1168     		ldr	r1, [r2]
 222 0022 0223     		movs	r3, #2
 223 0024 0B43     		orrs	r3, r1
 224 0026 1360     		str	r3, [r2]
 229:Generated_Source\PSoC4/cyfitter_cfg.c **** 	/*Set XTAL(ECO) divider*/
 225              		.loc 1 229 0
 226 0028 274A     		ldr	r2, .L13+16
 227 002a 284B     		ldr	r3, .L13+20
 228 002c 1A60     		str	r2, [r3]
 231:Generated_Source\PSoC4/cyfitter_cfg.c **** 	/* Disable Crystal Stable Interrupt before enabling ECO */
 229              		.loc 1 231 0
 230 002e 0024     		movs	r4, #0
 231 0030 274B     		ldr	r3, .L13+24
 232 0032 1C60     		str	r4, [r3]
 233:Generated_Source\PSoC4/cyfitter_cfg.c **** 	/* Start the ECO and do not check status since it is not needed for HFCLK */
 233              		.loc 1 233 0
 234 0034 274A     		ldr	r2, .L13+28
 235 0036 1368     		ldr	r3, [r2]
 236 0038 0821     		movs	r1, #8
 237 003a 8B43     		bics	r3, r1
 238 003c 1360     		str	r3, [r2]
 235:Generated_Source\PSoC4/cyfitter_cfg.c **** 	CyDelayUs(1500u); /* Wait to stabilize */
 239              		.loc 1 235 0
 240 003e FA20     		movs	r0, #250
 241 0040 C000     		lsls	r0, r0, #3
 242 0042 FFF7FEFF 		bl	CySysClkEcoStart
 243              	.LVL20:
 236:Generated_Source\PSoC4/cyfitter_cfg.c **** 
 244              		.loc 1 236 0
 245 0046 2448     		ldr	r0, .L13+32
 246 0048 FFF7FEFF 		bl	CyDelayUs
 247              	.LVL21:
 239:Generated_Source\PSoC4/cyfitter_cfg.c **** 	CY_SET_REG32((void *)CYREG_PERI_DIV_CMD, 0x8000FF41u);
 248              		.loc 1 239 0
 249 004c 234A     		ldr	r2, .L13+36
 250 004e 244B     		ldr	r3, .L13+40
 251 0050 1A60     		str	r2, [r3]
 240:Generated_Source\PSoC4/cyfitter_cfg.c **** 	CY_SET_REG32((void *)CYREG_PERI_DIV_16_CTL0, 0x00000200u);
 252              		.loc 1 240 0
 253 0052 244B     		ldr	r3, .L13+44
 254 0054 244A     		ldr	r2, .L13+48
 255 0056 1A60     		str	r2, [r3]
ARM GAS  C:\Users\rad1an\AppData\Local\Temp\cc46Ityd.s 			page 11


 241:Generated_Source\PSoC4/cyfitter_cfg.c **** 	CY_SET_REG32((void *)CYREG_PERI_DIV_CMD, 0x8000FF40u);
 256              		.loc 1 241 0
 257 0058 8021     		movs	r1, #128
 258 005a 8900     		lsls	r1, r1, #2
 259 005c 234A     		ldr	r2, .L13+52
 260 005e 1160     		str	r1, [r2]
 242:Generated_Source\PSoC4/cyfitter_cfg.c **** 
 261              		.loc 1 242 0
 262 0060 234A     		ldr	r2, .L13+56
 263 0062 1A60     		str	r2, [r3]
 245:Generated_Source\PSoC4/cyfitter_cfg.c **** 
 264              		.loc 1 245 0
 265 0064 8022     		movs	r2, #128
 266 0066 1206     		lsls	r2, r2, #24
 267 0068 224B     		ldr	r3, .L13+60
 268 006a 1A60     		str	r2, [r3]
 248:Generated_Source\PSoC4/cyfitter_cfg.c **** 
 269              		.loc 1 248 0
 270 006c 224B     		ldr	r3, .L13+64
 271 006e 1C60     		str	r4, [r3]
 251:Generated_Source\PSoC4/cyfitter_cfg.c **** 
 272              		.loc 1 251 0
 273 0070 4122     		movs	r2, #65
 274 0072 224B     		ldr	r3, .L13+68
 275 0074 1A60     		str	r2, [r3]
 254:Generated_Source\PSoC4/cyfitter_cfg.c **** 
 276              		.loc 1 254 0
 277 0076 013A     		subs	r2, r2, #1
 278 0078 214B     		ldr	r3, .L13+72
 279 007a 1A60     		str	r2, [r3]
 256:Generated_Source\PSoC4/cyfitter_cfg.c **** 	CyIntEnable(8u);
 280              		.loc 1 256 0
 281 007c 2149     		ldr	r1, .L13+76
 282 007e 0820     		movs	r0, #8
 283 0080 FFF7FEFF 		bl	CyIntSetVector
 284              	.LVL22:
 257:Generated_Source\PSoC4/cyfitter_cfg.c **** 	CY_SET_REG32((void *)(CYREG_WDT_MATCH), 0x01FF0000u);
 285              		.loc 1 257 0
 286 0084 0820     		movs	r0, #8
 287 0086 FFF7FEFF 		bl	CyIntEnable
 288              	.LVL23:
 258:Generated_Source\PSoC4/cyfitter_cfg.c **** 	CY_SET_REG32((void *)(CYREG_WDT_CONFIG), 0x00000700u);
 289              		.loc 1 258 0
 290 008a 1F4A     		ldr	r2, .L13+80
 291 008c 1F4B     		ldr	r3, .L13+84
 292 008e 1A60     		str	r2, [r3]
 259:Generated_Source\PSoC4/cyfitter_cfg.c **** 	CY_SET_REG32((void *)(CYREG_WDT_CONTROL), 0x00000800u);
 293              		.loc 1 259 0
 294 0090 E022     		movs	r2, #224
 295 0092 D200     		lsls	r2, r2, #3
 296 0094 1E4B     		ldr	r3, .L13+88
 297 0096 1A60     		str	r2, [r3]
 260:Generated_Source\PSoC4/cyfitter_cfg.c **** 	while ((CY_GET_XTND_REG32((void CYFAR *)(CYREG_WDT_CONTROL)) & 0x00000800u) != 0u) { }
 298              		.loc 1 260 0
 299 0098 0132     		adds	r2, r2, #1
 300 009a FF32     		adds	r2, r2, #255
 301 009c 1D4B     		ldr	r3, .L13+92
ARM GAS  C:\Users\rad1an\AppData\Local\Temp\cc46Ityd.s 			page 12


 302 009e 1A60     		str	r2, [r3]
 303              	.L12:
 261:Generated_Source\PSoC4/cyfitter_cfg.c **** 	CY_SET_REG32((void *)(CYREG_WDT_CONTROL), 0x00000100u);
 304              		.loc 1 261 0 discriminator 1
 305 00a0 1C4B     		ldr	r3, .L13+92
 306 00a2 1B68     		ldr	r3, [r3]
 307 00a4 1B05     		lsls	r3, r3, #20
 308 00a6 FBD4     		bmi	.L12
 262:Generated_Source\PSoC4/cyfitter_cfg.c **** 	/* Set Flash Cycles based on newly configured 24.00MHz HFCLK. */
 309              		.loc 1 262 0
 310 00a8 8022     		movs	r2, #128
 311 00aa 5200     		lsls	r2, r2, #1
 312 00ac 194B     		ldr	r3, .L13+92
 313 00ae 1A60     		str	r2, [r3]
 264:Generated_Source\PSoC4/cyfitter_cfg.c **** }
 314              		.loc 1 264 0
 315 00b0 EF3A     		subs	r2, r2, #239
 316 00b2 014B     		ldr	r3, .L13
 317 00b4 1A60     		str	r2, [r3]
 265:Generated_Source\PSoC4/cyfitter_cfg.c **** 
 318              		.loc 1 265 0
 319              		@ sp needed
 320 00b6 10BD     		pop	{r4, pc}
 321              	.L14:
 322              		.align	2
 323              	.L13:
 324 00b8 30001040 		.word	1074790448
 325 00bc 06000080 		.word	-2147483642
 326 00c0 04010B40 		.word	1074462980
 327 00c4 78002E40 		.word	1076756600
 328 00c8 2D3E0000 		.word	15917
 329 00cc 7C002E40 		.word	1076756604
 330 00d0 64F02E40 		.word	1076818020
 331 00d4 6CF02E40 		.word	1076818028
 332 00d8 DC050000 		.word	1500
 333 00dc 005FEA00 		.word	15359744
 334 00e0 04030140 		.word	1073808132
 335 00e4 00000140 		.word	1073807360
 336 00e8 41FF0080 		.word	-2147418303
 337 00ec 00030140 		.word	1073808128
 338 00f0 40FF0080 		.word	-2147418304
 339 00f4 08010B40 		.word	1074462984
 340 00f8 00010B40 		.word	1074462976
 341 00fc 38010140 		.word	1073807672
 342 0100 30010140 		.word	1073807664
 343 0104 00000000 		.word	CySysWdtIsr
 344 0108 0000FF01 		.word	33488896
 345 010c 08020B40 		.word	1074463240
 346 0110 0C020B40 		.word	1074463244
 347 0114 10020B40 		.word	1074463248
 348              		.cfi_endproc
 349              	.LFE6:
 350              		.size	ClockSetup, .-ClockSetup
 351              		.align	2
 352              		.global	cyfitter_cfg
 353              		.code	16
 354              		.thumb_func
ARM GAS  C:\Users\rad1an\AppData\Local\Temp\cc46Ityd.s 			page 13


 355              		.type	cyfitter_cfg, %function
 356              	cyfitter_cfg:
 357              	.LFB8:
 293:Generated_Source\PSoC4/cyfitter_cfg.c **** 
 294:Generated_Source\PSoC4/cyfitter_cfg.c **** 
 295:Generated_Source\PSoC4/cyfitter_cfg.c **** 
 296:Generated_Source\PSoC4/cyfitter_cfg.c **** 
 297:Generated_Source\PSoC4/cyfitter_cfg.c **** /*******************************************************************************
 298:Generated_Source\PSoC4/cyfitter_cfg.c **** * Function Name: cyfitter_cfg
 299:Generated_Source\PSoC4/cyfitter_cfg.c **** ********************************************************************************
 300:Generated_Source\PSoC4/cyfitter_cfg.c **** * Summary:
 301:Generated_Source\PSoC4/cyfitter_cfg.c **** *  This function is called by the start-up code for the selected device. It
 302:Generated_Source\PSoC4/cyfitter_cfg.c **** *  performs all of the necessary device configuration based on the design
 303:Generated_Source\PSoC4/cyfitter_cfg.c **** *  settings.  This includes settings from the Design Wide Resources (DWR) such
 304:Generated_Source\PSoC4/cyfitter_cfg.c **** *  as Clocks and Pins as well as any component configuration that is necessary.
 305:Generated_Source\PSoC4/cyfitter_cfg.c **** *
 306:Generated_Source\PSoC4/cyfitter_cfg.c **** * Parameters:
 307:Generated_Source\PSoC4/cyfitter_cfg.c **** *   void
 308:Generated_Source\PSoC4/cyfitter_cfg.c **** *
 309:Generated_Source\PSoC4/cyfitter_cfg.c **** * Return:
 310:Generated_Source\PSoC4/cyfitter_cfg.c **** *   void
 311:Generated_Source\PSoC4/cyfitter_cfg.c **** *
 312:Generated_Source\PSoC4/cyfitter_cfg.c **** *******************************************************************************/
 313:Generated_Source\PSoC4/cyfitter_cfg.c **** CY_CFG_SECTION
 314:Generated_Source\PSoC4/cyfitter_cfg.c **** void cyfitter_cfg(void)
 315:Generated_Source\PSoC4/cyfitter_cfg.c **** {
 358              		.loc 1 315 0
 359              		.cfi_startproc
 360              		@ args = 0, pretend = 0, frame = 0
 361              		@ frame_needed = 0, uses_anonymous_args = 0
 362 0118 70B5     		push	{r4, r5, r6, lr}
 363              		.cfi_def_cfa_offset 16
 364              		.cfi_offset 4, -16
 365              		.cfi_offset 5, -12
 366              		.cfi_offset 6, -8
 367              		.cfi_offset 14, -4
 316:Generated_Source\PSoC4/cyfitter_cfg.c **** 	/* Disable interrupts by default. Let user enable if/when they want. */
 317:Generated_Source\PSoC4/cyfitter_cfg.c **** 	CyGlobalIntDisable;
 368              		.loc 1 317 0
 369              		.syntax divided
 370              	@ 317 "Generated_Source\PSoC4\cyfitter_cfg.c" 1
 371 011a 72B6     		CPSID   i
 372              	@ 0 "" 2
 318:Generated_Source\PSoC4/cyfitter_cfg.c **** 
 319:Generated_Source\PSoC4/cyfitter_cfg.c **** 	CY_SET_REG32((void *)(CYREG_BLE_BLESS_LL_DSM_CTRL), 0x00000000u);
 373              		.loc 1 319 0
 374              		.thumb
 375              		.syntax unified
 376 011c 0022     		movs	r2, #0
 377 011e 364B     		ldr	r3, .L20
 378 0120 1A60     		str	r2, [r3]
 320:Generated_Source\PSoC4/cyfitter_cfg.c **** 
 321:Generated_Source\PSoC4/cyfitter_cfg.c **** 	/* Enable the clock in the interrupt controller for the routed interrupts */
 322:Generated_Source\PSoC4/cyfitter_cfg.c **** 	CY_SET_REG8((void *)CYREG_UDB_UDBIF_INT_CLK_CTL, 0x01u);
 379              		.loc 1 322 0
 380 0122 0132     		adds	r2, r2, #1
 381 0124 354B     		ldr	r3, .L20+4
ARM GAS  C:\Users\rad1an\AppData\Local\Temp\cc46Ityd.s 			page 14


 382 0126 1A70     		strb	r2, [r3]
 383              	.LVL24:
 384              	.LBB3:
 323:Generated_Source\PSoC4/cyfitter_cfg.c **** 	{
 324:Generated_Source\PSoC4/cyfitter_cfg.c **** 		static const uint32 CYCODE cy_cfg_addr_table[] = {
 325:Generated_Source\PSoC4/cyfitter_cfg.c **** 			0x400F0001u, /* Base address: 0x400F0000 Count: 1 */
 326:Generated_Source\PSoC4/cyfitter_cfg.c **** 			0x400F3022u, /* Base address: 0x400F3000 Count: 34 */
 327:Generated_Source\PSoC4/cyfitter_cfg.c **** 			0x400F3119u, /* Base address: 0x400F3100 Count: 25 */
 328:Generated_Source\PSoC4/cyfitter_cfg.c **** 			0x400F3237u, /* Base address: 0x400F3200 Count: 55 */
 329:Generated_Source\PSoC4/cyfitter_cfg.c **** 			0x400F3348u, /* Base address: 0x400F3300 Count: 72 */
 330:Generated_Source\PSoC4/cyfitter_cfg.c **** 			0x400F4002u, /* Base address: 0x400F4000 Count: 2 */
 331:Generated_Source\PSoC4/cyfitter_cfg.c **** 			0x400F410Bu, /* Base address: 0x400F4100 Count: 11 */
 332:Generated_Source\PSoC4/cyfitter_cfg.c **** 			0x400F6002u, /* Base address: 0x400F6000 Count: 2 */
 333:Generated_Source\PSoC4/cyfitter_cfg.c **** 		};
 334:Generated_Source\PSoC4/cyfitter_cfg.c **** 
 335:Generated_Source\PSoC4/cyfitter_cfg.c **** 		static const cy_cfg_addrvalue_t CYCODE cy_cfg_data_table[] = {
 336:Generated_Source\PSoC4/cyfitter_cfg.c **** 			{0x82u, 0x1Fu},
 337:Generated_Source\PSoC4/cyfitter_cfg.c **** 			{0x3Au, 0x03u},
 338:Generated_Source\PSoC4/cyfitter_cfg.c **** 			{0x58u, 0x04u},
 339:Generated_Source\PSoC4/cyfitter_cfg.c **** 			{0x5Cu, 0x03u},
 340:Generated_Source\PSoC4/cyfitter_cfg.c **** 			{0x5Fu, 0x01u},
 341:Generated_Source\PSoC4/cyfitter_cfg.c **** 			{0x84u, 0x38u},
 342:Generated_Source\PSoC4/cyfitter_cfg.c **** 			{0x88u, 0x4Du},
 343:Generated_Source\PSoC4/cyfitter_cfg.c **** 			{0x8Au, 0x10u},
 344:Generated_Source\PSoC4/cyfitter_cfg.c **** 			{0x94u, 0x50u},
 345:Generated_Source\PSoC4/cyfitter_cfg.c **** 			{0x95u, 0x03u},
 346:Generated_Source\PSoC4/cyfitter_cfg.c **** 			{0x96u, 0x27u},
 347:Generated_Source\PSoC4/cyfitter_cfg.c **** 			{0x97u, 0x0Cu},
 348:Generated_Source\PSoC4/cyfitter_cfg.c **** 			{0x99u, 0x05u},
 349:Generated_Source\PSoC4/cyfitter_cfg.c **** 			{0x9Au, 0x02u},
 350:Generated_Source\PSoC4/cyfitter_cfg.c **** 			{0x9Bu, 0x0Au},
 351:Generated_Source\PSoC4/cyfitter_cfg.c **** 			{0x9Du, 0x02u},
 352:Generated_Source\PSoC4/cyfitter_cfg.c **** 			{0x9Fu, 0x0Du},
 353:Generated_Source\PSoC4/cyfitter_cfg.c **** 			{0xA8u, 0x54u},
 354:Generated_Source\PSoC4/cyfitter_cfg.c **** 			{0xAAu, 0x2Bu},
 355:Generated_Source\PSoC4/cyfitter_cfg.c **** 			{0xADu, 0x09u},
 356:Generated_Source\PSoC4/cyfitter_cfg.c **** 			{0xAFu, 0x06u},
 357:Generated_Source\PSoC4/cyfitter_cfg.c **** 			{0xB2u, 0x3Cu},
 358:Generated_Source\PSoC4/cyfitter_cfg.c **** 			{0xB4u, 0x03u},
 359:Generated_Source\PSoC4/cyfitter_cfg.c **** 			{0xB6u, 0x40u},
 360:Generated_Source\PSoC4/cyfitter_cfg.c **** 			{0xB7u, 0x0Fu},
 361:Generated_Source\PSoC4/cyfitter_cfg.c **** 			{0xB8u, 0x08u},
 362:Generated_Source\PSoC4/cyfitter_cfg.c **** 			{0xBBu, 0x80u},
 363:Generated_Source\PSoC4/cyfitter_cfg.c **** 			{0xBEu, 0x40u},
 364:Generated_Source\PSoC4/cyfitter_cfg.c **** 			{0xD4u, 0x09u},
 365:Generated_Source\PSoC4/cyfitter_cfg.c **** 			{0xD8u, 0x04u},
 366:Generated_Source\PSoC4/cyfitter_cfg.c **** 			{0xD9u, 0x04u},
 367:Generated_Source\PSoC4/cyfitter_cfg.c **** 			{0xDBu, 0x04u},
 368:Generated_Source\PSoC4/cyfitter_cfg.c **** 			{0xDCu, 0x11u},
 369:Generated_Source\PSoC4/cyfitter_cfg.c **** 			{0xDDu, 0x10u},
 370:Generated_Source\PSoC4/cyfitter_cfg.c **** 			{0xDFu, 0x01u},
 371:Generated_Source\PSoC4/cyfitter_cfg.c **** 			{0x05u, 0x04u},
 372:Generated_Source\PSoC4/cyfitter_cfg.c **** 			{0x07u, 0x08u},
 373:Generated_Source\PSoC4/cyfitter_cfg.c **** 			{0x0Eu, 0x08u},
 374:Generated_Source\PSoC4/cyfitter_cfg.c **** 			{0x0Fu, 0x20u},
 375:Generated_Source\PSoC4/cyfitter_cfg.c **** 			{0x12u, 0x80u},
 376:Generated_Source\PSoC4/cyfitter_cfg.c **** 			{0x13u, 0x01u},
ARM GAS  C:\Users\rad1an\AppData\Local\Temp\cc46Ityd.s 			page 15


 377:Generated_Source\PSoC4/cyfitter_cfg.c **** 			{0x17u, 0x20u},
 378:Generated_Source\PSoC4/cyfitter_cfg.c **** 			{0x1Au, 0x80u},
 379:Generated_Source\PSoC4/cyfitter_cfg.c **** 			{0x1Du, 0x44u},
 380:Generated_Source\PSoC4/cyfitter_cfg.c **** 			{0x1Eu, 0x08u},
 381:Generated_Source\PSoC4/cyfitter_cfg.c **** 			{0x26u, 0x80u},
 382:Generated_Source\PSoC4/cyfitter_cfg.c **** 			{0x2Fu, 0x02u},
 383:Generated_Source\PSoC4/cyfitter_cfg.c **** 			{0x36u, 0x80u},
 384:Generated_Source\PSoC4/cyfitter_cfg.c **** 			{0x37u, 0x28u},
 385:Generated_Source\PSoC4/cyfitter_cfg.c **** 			{0x5Cu, 0x20u},
 386:Generated_Source\PSoC4/cyfitter_cfg.c **** 			{0x5Eu, 0x42u},
 387:Generated_Source\PSoC4/cyfitter_cfg.c **** 			{0x5Fu, 0x04u},
 388:Generated_Source\PSoC4/cyfitter_cfg.c **** 			{0x65u, 0x40u},
 389:Generated_Source\PSoC4/cyfitter_cfg.c **** 			{0xC0u, 0x60u},
 390:Generated_Source\PSoC4/cyfitter_cfg.c **** 			{0xC2u, 0x60u},
 391:Generated_Source\PSoC4/cyfitter_cfg.c **** 			{0xC4u, 0x40u},
 392:Generated_Source\PSoC4/cyfitter_cfg.c **** 			{0xCAu, 0x10u},
 393:Generated_Source\PSoC4/cyfitter_cfg.c **** 			{0xCCu, 0x70u},
 394:Generated_Source\PSoC4/cyfitter_cfg.c **** 			{0xD6u, 0xF0u},
 395:Generated_Source\PSoC4/cyfitter_cfg.c **** 			{0xD8u, 0x10u},
 396:Generated_Source\PSoC4/cyfitter_cfg.c **** 			{0x80u, 0x1Bu},
 397:Generated_Source\PSoC4/cyfitter_cfg.c **** 			{0x84u, 0xC4u},
 398:Generated_Source\PSoC4/cyfitter_cfg.c **** 			{0x86u, 0x28u},
 399:Generated_Source\PSoC4/cyfitter_cfg.c **** 			{0x88u, 0x22u},
 400:Generated_Source\PSoC4/cyfitter_cfg.c **** 			{0x8Au, 0x44u},
 401:Generated_Source\PSoC4/cyfitter_cfg.c **** 			{0x8Cu, 0x1Au},
 402:Generated_Source\PSoC4/cyfitter_cfg.c **** 			{0x8Eu, 0x01u},
 403:Generated_Source\PSoC4/cyfitter_cfg.c **** 			{0x90u, 0x84u},
 404:Generated_Source\PSoC4/cyfitter_cfg.c **** 			{0x92u, 0x10u},
 405:Generated_Source\PSoC4/cyfitter_cfg.c **** 			{0x98u, 0x80u},
 406:Generated_Source\PSoC4/cyfitter_cfg.c **** 			{0x9Cu, 0x04u},
 407:Generated_Source\PSoC4/cyfitter_cfg.c **** 			{0x9Eu, 0x1Au},
 408:Generated_Source\PSoC4/cyfitter_cfg.c **** 			{0xA0u, 0x1Bu},
 409:Generated_Source\PSoC4/cyfitter_cfg.c **** 			{0xA4u, 0x1Bu},
 410:Generated_Source\PSoC4/cyfitter_cfg.c **** 			{0xA8u, 0x1Bu},
 411:Generated_Source\PSoC4/cyfitter_cfg.c **** 			{0xAEu, 0x01u},
 412:Generated_Source\PSoC4/cyfitter_cfg.c **** 			{0xB0u, 0xE0u},
 413:Generated_Source\PSoC4/cyfitter_cfg.c **** 			{0xB2u, 0x01u},
 414:Generated_Source\PSoC4/cyfitter_cfg.c **** 			{0xB4u, 0xE0u},
 415:Generated_Source\PSoC4/cyfitter_cfg.c **** 			{0xB6u, 0x1Eu},
 416:Generated_Source\PSoC4/cyfitter_cfg.c **** 			{0xBAu, 0xA2u},
 417:Generated_Source\PSoC4/cyfitter_cfg.c **** 			{0xBEu, 0x04u},
 418:Generated_Source\PSoC4/cyfitter_cfg.c **** 			{0xC0u, 0x64u},
 419:Generated_Source\PSoC4/cyfitter_cfg.c **** 			{0xC1u, 0x03u},
 420:Generated_Source\PSoC4/cyfitter_cfg.c **** 			{0xC2u, 0x10u},
 421:Generated_Source\PSoC4/cyfitter_cfg.c **** 			{0xC5u, 0x0Eu},
 422:Generated_Source\PSoC4/cyfitter_cfg.c **** 			{0xC6u, 0xF0u},
 423:Generated_Source\PSoC4/cyfitter_cfg.c **** 			{0xC7u, 0xDCu},
 424:Generated_Source\PSoC4/cyfitter_cfg.c **** 			{0xC8u, 0x39u},
 425:Generated_Source\PSoC4/cyfitter_cfg.c **** 			{0xC9u, 0xFFu},
 426:Generated_Source\PSoC4/cyfitter_cfg.c **** 			{0xCAu, 0xFFu},
 427:Generated_Source\PSoC4/cyfitter_cfg.c **** 			{0xCBu, 0xFFu},
 428:Generated_Source\PSoC4/cyfitter_cfg.c **** 			{0xCCu, 0x22u},
 429:Generated_Source\PSoC4/cyfitter_cfg.c **** 			{0xCEu, 0xF0u},
 430:Generated_Source\PSoC4/cyfitter_cfg.c **** 			{0xCFu, 0x48u},
 431:Generated_Source\PSoC4/cyfitter_cfg.c **** 			{0xD0u, 0x04u},
 432:Generated_Source\PSoC4/cyfitter_cfg.c **** 			{0xD4u, 0x40u},
 433:Generated_Source\PSoC4/cyfitter_cfg.c **** 			{0xD8u, 0x04u},
ARM GAS  C:\Users\rad1an\AppData\Local\Temp\cc46Ityd.s 			page 16


 434:Generated_Source\PSoC4/cyfitter_cfg.c **** 			{0xDAu, 0x04u},
 435:Generated_Source\PSoC4/cyfitter_cfg.c **** 			{0xDBu, 0x04u},
 436:Generated_Source\PSoC4/cyfitter_cfg.c **** 			{0xDCu, 0x01u},
 437:Generated_Source\PSoC4/cyfitter_cfg.c **** 			{0xDDu, 0x11u},
 438:Generated_Source\PSoC4/cyfitter_cfg.c **** 			{0xDFu, 0x01u},
 439:Generated_Source\PSoC4/cyfitter_cfg.c **** 			{0xE2u, 0xC0u},
 440:Generated_Source\PSoC4/cyfitter_cfg.c **** 			{0xE4u, 0x40u},
 441:Generated_Source\PSoC4/cyfitter_cfg.c **** 			{0xE5u, 0x02u},
 442:Generated_Source\PSoC4/cyfitter_cfg.c **** 			{0xE6u, 0x10u},
 443:Generated_Source\PSoC4/cyfitter_cfg.c **** 			{0xE7u, 0x12u},
 444:Generated_Source\PSoC4/cyfitter_cfg.c **** 			{0xE8u, 0xC0u},
 445:Generated_Source\PSoC4/cyfitter_cfg.c **** 			{0xE9u, 0x02u},
 446:Generated_Source\PSoC4/cyfitter_cfg.c **** 			{0xEBu, 0x12u},
 447:Generated_Source\PSoC4/cyfitter_cfg.c **** 			{0xECu, 0x40u},
 448:Generated_Source\PSoC4/cyfitter_cfg.c **** 			{0xEDu, 0x02u},
 449:Generated_Source\PSoC4/cyfitter_cfg.c **** 			{0xEEu, 0x40u},
 450:Generated_Source\PSoC4/cyfitter_cfg.c **** 			{0xEFu, 0x02u},
 451:Generated_Source\PSoC4/cyfitter_cfg.c **** 			{0x03u, 0x55u},
 452:Generated_Source\PSoC4/cyfitter_cfg.c **** 			{0x05u, 0x10u},
 453:Generated_Source\PSoC4/cyfitter_cfg.c **** 			{0x06u, 0x02u},
 454:Generated_Source\PSoC4/cyfitter_cfg.c **** 			{0x07u, 0x60u},
 455:Generated_Source\PSoC4/cyfitter_cfg.c **** 			{0x08u, 0x20u},
 456:Generated_Source\PSoC4/cyfitter_cfg.c **** 			{0x0Au, 0x82u},
 457:Generated_Source\PSoC4/cyfitter_cfg.c **** 			{0x0Bu, 0x08u},
 458:Generated_Source\PSoC4/cyfitter_cfg.c **** 			{0x0Eu, 0xA0u},
 459:Generated_Source\PSoC4/cyfitter_cfg.c **** 			{0x0Fu, 0x0Au},
 460:Generated_Source\PSoC4/cyfitter_cfg.c **** 			{0x10u, 0x8Au},
 461:Generated_Source\PSoC4/cyfitter_cfg.c **** 			{0x11u, 0x04u},
 462:Generated_Source\PSoC4/cyfitter_cfg.c **** 			{0x15u, 0x14u},
 463:Generated_Source\PSoC4/cyfitter_cfg.c **** 			{0x17u, 0x01u},
 464:Generated_Source\PSoC4/cyfitter_cfg.c **** 			{0x18u, 0x10u},
 465:Generated_Source\PSoC4/cyfitter_cfg.c **** 			{0x1Au, 0x82u},
 466:Generated_Source\PSoC4/cyfitter_cfg.c **** 			{0x1Bu, 0x13u},
 467:Generated_Source\PSoC4/cyfitter_cfg.c **** 			{0x1Du, 0x90u},
 468:Generated_Source\PSoC4/cyfitter_cfg.c **** 			{0x1Eu, 0x42u},
 469:Generated_Source\PSoC4/cyfitter_cfg.c **** 			{0x26u, 0x58u},
 470:Generated_Source\PSoC4/cyfitter_cfg.c **** 			{0x27u, 0x3Cu},
 471:Generated_Source\PSoC4/cyfitter_cfg.c **** 			{0x2Fu, 0x86u},
 472:Generated_Source\PSoC4/cyfitter_cfg.c **** 			{0x36u, 0x40u},
 473:Generated_Source\PSoC4/cyfitter_cfg.c **** 			{0x37u, 0x29u},
 474:Generated_Source\PSoC4/cyfitter_cfg.c **** 			{0x3Cu, 0x80u},
 475:Generated_Source\PSoC4/cyfitter_cfg.c **** 			{0x3Du, 0x04u},
 476:Generated_Source\PSoC4/cyfitter_cfg.c **** 			{0x3Eu, 0x10u},
 477:Generated_Source\PSoC4/cyfitter_cfg.c **** 			{0x41u, 0x80u},
 478:Generated_Source\PSoC4/cyfitter_cfg.c **** 			{0x43u, 0x06u},
 479:Generated_Source\PSoC4/cyfitter_cfg.c **** 			{0x45u, 0x80u},
 480:Generated_Source\PSoC4/cyfitter_cfg.c **** 			{0x47u, 0x28u},
 481:Generated_Source\PSoC4/cyfitter_cfg.c **** 			{0x48u, 0x02u},
 482:Generated_Source\PSoC4/cyfitter_cfg.c **** 			{0x49u, 0x40u},
 483:Generated_Source\PSoC4/cyfitter_cfg.c **** 			{0x4Au, 0x08u},
 484:Generated_Source\PSoC4/cyfitter_cfg.c **** 			{0x4Bu, 0x04u},
 485:Generated_Source\PSoC4/cyfitter_cfg.c **** 			{0x4Fu, 0x28u},
 486:Generated_Source\PSoC4/cyfitter_cfg.c **** 			{0x50u, 0x02u},
 487:Generated_Source\PSoC4/cyfitter_cfg.c **** 			{0x51u, 0x20u},
 488:Generated_Source\PSoC4/cyfitter_cfg.c **** 			{0x53u, 0x04u},
 489:Generated_Source\PSoC4/cyfitter_cfg.c **** 			{0x60u, 0x10u},
 490:Generated_Source\PSoC4/cyfitter_cfg.c **** 			{0x61u, 0x60u},
ARM GAS  C:\Users\rad1an\AppData\Local\Temp\cc46Ityd.s 			page 17


 491:Generated_Source\PSoC4/cyfitter_cfg.c **** 			{0x67u, 0x01u},
 492:Generated_Source\PSoC4/cyfitter_cfg.c **** 			{0x6Cu, 0x08u},
 493:Generated_Source\PSoC4/cyfitter_cfg.c **** 			{0x6Du, 0x14u},
 494:Generated_Source\PSoC4/cyfitter_cfg.c **** 			{0x6Eu, 0x10u},
 495:Generated_Source\PSoC4/cyfitter_cfg.c **** 			{0x6Fu, 0xC1u},
 496:Generated_Source\PSoC4/cyfitter_cfg.c **** 			{0x74u, 0xC0u},
 497:Generated_Source\PSoC4/cyfitter_cfg.c **** 			{0x76u, 0x02u},
 498:Generated_Source\PSoC4/cyfitter_cfg.c **** 			{0x8Du, 0x04u},
 499:Generated_Source\PSoC4/cyfitter_cfg.c **** 			{0x8Eu, 0x04u},
 500:Generated_Source\PSoC4/cyfitter_cfg.c **** 			{0x93u, 0x01u},
 501:Generated_Source\PSoC4/cyfitter_cfg.c **** 			{0x96u, 0x40u},
 502:Generated_Source\PSoC4/cyfitter_cfg.c **** 			{0x97u, 0x04u},
 503:Generated_Source\PSoC4/cyfitter_cfg.c **** 			{0x99u, 0x04u},
 504:Generated_Source\PSoC4/cyfitter_cfg.c **** 			{0x9Cu, 0x20u},
 505:Generated_Source\PSoC4/cyfitter_cfg.c **** 			{0x9Du, 0x10u},
 506:Generated_Source\PSoC4/cyfitter_cfg.c **** 			{0x9Fu, 0x28u},
 507:Generated_Source\PSoC4/cyfitter_cfg.c **** 			{0xA2u, 0x04u},
 508:Generated_Source\PSoC4/cyfitter_cfg.c **** 			{0xA6u, 0x01u},
 509:Generated_Source\PSoC4/cyfitter_cfg.c **** 			{0xA7u, 0x12u},
 510:Generated_Source\PSoC4/cyfitter_cfg.c **** 			{0xAAu, 0x40u},
 511:Generated_Source\PSoC4/cyfitter_cfg.c **** 			{0xB5u, 0x10u},
 512:Generated_Source\PSoC4/cyfitter_cfg.c **** 			{0xC0u, 0xFFu},
 513:Generated_Source\PSoC4/cyfitter_cfg.c **** 			{0xC2u, 0xFBu},
 514:Generated_Source\PSoC4/cyfitter_cfg.c **** 			{0xC4u, 0x7Fu},
 515:Generated_Source\PSoC4/cyfitter_cfg.c **** 			{0xCAu, 0xB0u},
 516:Generated_Source\PSoC4/cyfitter_cfg.c **** 			{0xCCu, 0xF0u},
 517:Generated_Source\PSoC4/cyfitter_cfg.c **** 			{0xCEu, 0x70u},
 518:Generated_Source\PSoC4/cyfitter_cfg.c **** 			{0xD0u, 0x7Bu},
 519:Generated_Source\PSoC4/cyfitter_cfg.c **** 			{0xD2u, 0x24u},
 520:Generated_Source\PSoC4/cyfitter_cfg.c **** 			{0xD8u, 0x1Eu},
 521:Generated_Source\PSoC4/cyfitter_cfg.c **** 			{0xE2u, 0x50u},
 522:Generated_Source\PSoC4/cyfitter_cfg.c **** 			{0xEAu, 0x40u},
 523:Generated_Source\PSoC4/cyfitter_cfg.c **** 			{0x63u, 0x08u},
 524:Generated_Source\PSoC4/cyfitter_cfg.c **** 			{0xD8u, 0x40u},
 525:Generated_Source\PSoC4/cyfitter_cfg.c **** 			{0x50u, 0x04u},
 526:Generated_Source\PSoC4/cyfitter_cfg.c **** 			{0x57u, 0x04u},
 527:Generated_Source\PSoC4/cyfitter_cfg.c **** 			{0x6Fu, 0x08u},
 528:Generated_Source\PSoC4/cyfitter_cfg.c **** 			{0x8Cu, 0x04u},
 529:Generated_Source\PSoC4/cyfitter_cfg.c **** 			{0x8Fu, 0x04u},
 530:Generated_Source\PSoC4/cyfitter_cfg.c **** 			{0xA3u, 0x08u},
 531:Generated_Source\PSoC4/cyfitter_cfg.c **** 			{0xABu, 0x08u},
 532:Generated_Source\PSoC4/cyfitter_cfg.c **** 			{0xB7u, 0x04u},
 533:Generated_Source\PSoC4/cyfitter_cfg.c **** 			{0xD4u, 0x60u},
 534:Generated_Source\PSoC4/cyfitter_cfg.c **** 			{0xDAu, 0x80u},
 535:Generated_Source\PSoC4/cyfitter_cfg.c **** 			{0xEEu, 0x80u},
 536:Generated_Source\PSoC4/cyfitter_cfg.c **** 			{0x01u, 0x0Au},
 537:Generated_Source\PSoC4/cyfitter_cfg.c **** 			{0x10u, 0x0Au},
 538:Generated_Source\PSoC4/cyfitter_cfg.c **** 		};
 539:Generated_Source\PSoC4/cyfitter_cfg.c **** 
 540:Generated_Source\PSoC4/cyfitter_cfg.c **** 
 541:Generated_Source\PSoC4/cyfitter_cfg.c **** 
 542:Generated_Source\PSoC4/cyfitter_cfg.c **** 		CYPACKED typedef struct {
 543:Generated_Source\PSoC4/cyfitter_cfg.c **** 			void CYFAR *address;
 544:Generated_Source\PSoC4/cyfitter_cfg.c **** 			uint16 size;
 545:Generated_Source\PSoC4/cyfitter_cfg.c **** 		} CYPACKED_ATTR cfg_memset_t;
 546:Generated_Source\PSoC4/cyfitter_cfg.c **** 
 547:Generated_Source\PSoC4/cyfitter_cfg.c **** 
ARM GAS  C:\Users\rad1an\AppData\Local\Temp\cc46Ityd.s 			page 18


 548:Generated_Source\PSoC4/cyfitter_cfg.c **** 		CYPACKED typedef struct {
 549:Generated_Source\PSoC4/cyfitter_cfg.c **** 			void CYFAR *dest;
 550:Generated_Source\PSoC4/cyfitter_cfg.c **** 			const void CYCODE *src;
 551:Generated_Source\PSoC4/cyfitter_cfg.c **** 			uint16 size;
 552:Generated_Source\PSoC4/cyfitter_cfg.c **** 		} CYPACKED_ATTR cfg_memcpy_t;
 553:Generated_Source\PSoC4/cyfitter_cfg.c **** 
 554:Generated_Source\PSoC4/cyfitter_cfg.c **** 		static const cfg_memset_t CYCODE cfg_memset_list[] = {
 555:Generated_Source\PSoC4/cyfitter_cfg.c **** 			/* address, size */
 556:Generated_Source\PSoC4/cyfitter_cfg.c **** 			{(void CYFAR *)(CYDEV_UDB_P0_U0_BASE), 512u},
 557:Generated_Source\PSoC4/cyfitter_cfg.c **** 			{(void CYFAR *)(CYDEV_UDB_P1_U1_BASE), 384u},
 558:Generated_Source\PSoC4/cyfitter_cfg.c **** 			{(void CYFAR *)(CYDEV_UDB_DSI0_BASE), 1024u},
 559:Generated_Source\PSoC4/cyfitter_cfg.c **** 		};
 560:Generated_Source\PSoC4/cyfitter_cfg.c **** 
 561:Generated_Source\PSoC4/cyfitter_cfg.c **** 		/* UDB_0_0_1_CONFIG Address: CYDEV_UDB_P1_U0_BASE Size (bytes): 128 */
 562:Generated_Source\PSoC4/cyfitter_cfg.c **** 		static const uint8 CYCODE BS_UDB_0_0_1_CONFIG_VAL[] = {
 563:Generated_Source\PSoC4/cyfitter_cfg.c **** 			0x09u, 0x00u, 0x00u, 0x00u, 0x14u, 0x98u, 0x20u, 0x02u, 0x02u, 0x02u, 0x00u, 0x98u, 0x09u, 0x9Au
 564:Generated_Source\PSoC4/cyfitter_cfg.c **** 			0x08u, 0x98u, 0x00u, 0x02u, 0x0Eu, 0x13u, 0x70u, 0x64u, 0xC0u, 0x21u, 0x00u, 0xD8u, 0xACu, 0x38u
 565:Generated_Source\PSoC4/cyfitter_cfg.c **** 			0x08u, 0x9Au, 0x01u, 0x00u, 0x09u, 0x00u, 0x00u, 0x00u, 0x01u, 0x02u, 0x08u, 0x00u, 0x00u, 0xFCu
 566:Generated_Source\PSoC4/cyfitter_cfg.c **** 			0x10u, 0x00u, 0x00u, 0x0Fu, 0xFEu, 0x13u, 0x01u, 0xE0u, 0x20u, 0x00u, 0x00u, 0x88u, 0x00u, 0x00u
 567:Generated_Source\PSoC4/cyfitter_cfg.c **** 			0x26u, 0x03u, 0x10u, 0x00u, 0x00u, 0x0Bu, 0x00u, 0x00u, 0x01u, 0xFFu, 0xFFu, 0xFFu, 0x03u, 0x00u
 568:Generated_Source\PSoC4/cyfitter_cfg.c **** 			0x04u, 0x00u, 0x00u, 0x00u, 0x00u, 0x00u, 0x02u, 0x20u, 0x04u, 0x04u, 0x04u, 0x04u, 0x11u, 0x11u
 569:Generated_Source\PSoC4/cyfitter_cfg.c **** 			0x00u, 0x00u, 0xC0u, 0x00u, 0x40u, 0x02u, 0x10u, 0x12u, 0xC0u, 0x02u, 0x00u, 0x12u, 0x40u, 0x02u
 570:Generated_Source\PSoC4/cyfitter_cfg.c **** 			0x00u, 0x00u, 0x00u, 0x00u, 0x00u, 0x00u, 0x00u, 0x00u, 0x00u, 0x00u, 0x00u, 0x00u, 0x00u, 0x00u
 571:Generated_Source\PSoC4/cyfitter_cfg.c **** 
 572:Generated_Source\PSoC4/cyfitter_cfg.c **** 		static const cfg_memcpy_t CYCODE cfg_memcpy_list [] = {
 573:Generated_Source\PSoC4/cyfitter_cfg.c **** 			/* dest, src, size */
 574:Generated_Source\PSoC4/cyfitter_cfg.c **** 			{(void CYFAR *)(CYDEV_UDB_P1_U0_BASE), BS_UDB_0_0_1_CONFIG_VAL, 128u},
 575:Generated_Source\PSoC4/cyfitter_cfg.c **** 		};
 576:Generated_Source\PSoC4/cyfitter_cfg.c **** 
 577:Generated_Source\PSoC4/cyfitter_cfg.c **** 		uint8 CYDATA i;
 578:Generated_Source\PSoC4/cyfitter_cfg.c **** 
 579:Generated_Source\PSoC4/cyfitter_cfg.c **** 		/* Zero out critical memory blocks before beginning configuration */
 580:Generated_Source\PSoC4/cyfitter_cfg.c **** 		for (i = 0u; i < (sizeof(cfg_memset_list)/sizeof(cfg_memset_list[0])); i++)
 385              		.loc 1 580 0
 386 0128 0024     		movs	r4, #0
 387 012a 0FE0     		b	.L16
 388              	.LVL25:
 389              	.L17:
 390              	.LBB4:
 581:Generated_Source\PSoC4/cyfitter_cfg.c **** 		{
 582:Generated_Source\PSoC4/cyfitter_cfg.c **** 			const cfg_memset_t CYCODE * CYDATA ms = &cfg_memset_list[i];
 583:Generated_Source\PSoC4/cyfitter_cfg.c **** 			CYMEMZERO(ms->address, (size_t)(uint32)(ms->size));
 391              		.loc 1 583 0 discriminator 3
 392 012c 3448     		ldr	r0, .L20+8
 393 012e 6200     		lsls	r2, r4, #1
 394 0130 1319     		adds	r3, r2, r4
 395 0132 5900     		lsls	r1, r3, #1
 396 0134 0B00     		movs	r3, r1
 397 0136 4118     		adds	r1, r0, r1
 398 0138 8988     		ldrh	r1, [r1, #4]
 399 013a 1A5A     		ldrh	r2, [r3, r0]
 400 013c C318     		adds	r3, r0, r3
 401 013e 5888     		ldrh	r0, [r3, #2]
 402 0140 0004     		lsls	r0, r0, #16
 403 0142 1043     		orrs	r0, r2
 404 0144 FFF7FEFF 		bl	CYMEMZERO
 405              	.LVL26:
ARM GAS  C:\Users\rad1an\AppData\Local\Temp\cc46Ityd.s 			page 19


 406              	.LBE4:
 580:Generated_Source\PSoC4/cyfitter_cfg.c **** 		{
 407              		.loc 1 580 0 discriminator 3
 408 0148 0134     		adds	r4, r4, #1
 409              	.LVL27:
 410 014a E4B2     		uxtb	r4, r4
 411              	.LVL28:
 412              	.L16:
 580:Generated_Source\PSoC4/cyfitter_cfg.c **** 		{
 413              		.loc 1 580 0 is_stmt 0 discriminator 1
 414 014c 022C     		cmp	r4, #2
 415 014e EDD9     		bls	.L17
 416 0150 0024     		movs	r4, #0
 417              	.LVL29:
 418 0152 11E0     		b	.L18
 419              	.LVL30:
 420              	.L19:
 421              	.LBB5:
 584:Generated_Source\PSoC4/cyfitter_cfg.c **** 		}
 585:Generated_Source\PSoC4/cyfitter_cfg.c **** 
 586:Generated_Source\PSoC4/cyfitter_cfg.c **** 		/* Copy device configuration data into registers */
 587:Generated_Source\PSoC4/cyfitter_cfg.c **** 		for (i = 0u; i < (sizeof(cfg_memcpy_list)/sizeof(cfg_memcpy_list[0])); i++)
 588:Generated_Source\PSoC4/cyfitter_cfg.c **** 		{
 589:Generated_Source\PSoC4/cyfitter_cfg.c **** 			const cfg_memcpy_t CYCODE * CYDATA mc = &cfg_memcpy_list[i];
 590:Generated_Source\PSoC4/cyfitter_cfg.c **** 			void * CYDATA destPtr = mc->dest;
 422              		.loc 1 590 0 is_stmt 1 discriminator 3
 423 0154 2A4E     		ldr	r6, .L20+8
 424 0156 A200     		lsls	r2, r4, #2
 425 0158 1319     		adds	r3, r2, r4
 426 015a 5900     		lsls	r1, r3, #1
 427 015c 7118     		adds	r1, r6, r1
 428 015e 8D8A     		ldrh	r5, [r1, #20]
 429 0160 C88A     		ldrh	r0, [r1, #22]
 430 0162 0004     		lsls	r0, r0, #16
 431 0164 2843     		orrs	r0, r5
 432              	.LVL31:
 591:Generated_Source\PSoC4/cyfitter_cfg.c **** 			const void CYCODE * CYDATA srcPtr = mc->src;
 433              		.loc 1 591 0 discriminator 3
 434 0166 0A8B     		ldrh	r2, [r1, #24]
 435 0168 498B     		ldrh	r1, [r1, #26]
 436 016a 0904     		lsls	r1, r1, #16
 437 016c 1143     		orrs	r1, r2
 438              	.LVL32:
 592:Generated_Source\PSoC4/cyfitter_cfg.c **** 			uint16 CYDATA numBytes = mc->size;
 593:Generated_Source\PSoC4/cyfitter_cfg.c **** 			CYCONFIGCPYCODE(destPtr, srcPtr, numBytes);
 439              		.loc 1 593 0 discriminator 3
 440 016e 8022     		movs	r2, #128
 441 0170 FFF7FEFF 		bl	CYCONFIGCPYCODE
 442              	.LVL33:
 443              	.LBE5:
 587:Generated_Source\PSoC4/cyfitter_cfg.c **** 		{
 444              		.loc 1 587 0 discriminator 3
 445 0174 0134     		adds	r4, r4, #1
 446              	.LVL34:
 447 0176 E4B2     		uxtb	r4, r4
 448              	.LVL35:
 449              	.L18:
ARM GAS  C:\Users\rad1an\AppData\Local\Temp\cc46Ityd.s 			page 20


 587:Generated_Source\PSoC4/cyfitter_cfg.c **** 		{
 450              		.loc 1 587 0 is_stmt 0 discriminator 1
 451 0178 002C     		cmp	r4, #0
 452 017a EBD0     		beq	.L19
 594:Generated_Source\PSoC4/cyfitter_cfg.c **** 		}
 595:Generated_Source\PSoC4/cyfitter_cfg.c **** 
 596:Generated_Source\PSoC4/cyfitter_cfg.c **** 		cfg_write_bytes32(cy_cfg_addr_table, cy_cfg_data_table);
 453              		.loc 1 596 0 is_stmt 1
 454 017c 2049     		ldr	r1, .L20+8
 455 017e 2031     		adds	r1, r1, #32
 456 0180 2048     		ldr	r0, .L20+12
 457 0182 3430     		adds	r0, r0, #52
 458 0184 FFF7FEFF 		bl	cfg_write_bytes32
 459              	.LVL36:
 597:Generated_Source\PSoC4/cyfitter_cfg.c **** 
 598:Generated_Source\PSoC4/cyfitter_cfg.c **** 		/* HSIOM Starting address: CYDEV_HSIOM_BASE */
 599:Generated_Source\PSoC4/cyfitter_cfg.c **** 		CY_SET_REG32((void *)(CYDEV_HSIOM_BASE), 0xEE300000u);
 460              		.loc 1 599 0
 461 0188 1F4A     		ldr	r2, .L20+16
 462 018a 204B     		ldr	r3, .L20+20
 463 018c 1A60     		str	r2, [r3]
 600:Generated_Source\PSoC4/cyfitter_cfg.c **** 		CY_SET_REG32((void *)(CYREG_HSIOM_PORT_SEL1), 0x00003003u);
 464              		.loc 1 600 0
 465 018e 204A     		ldr	r2, .L20+24
 466 0190 204B     		ldr	r3, .L20+28
 467 0192 1A60     		str	r2, [r3]
 601:Generated_Source\PSoC4/cyfitter_cfg.c **** 
 602:Generated_Source\PSoC4/cyfitter_cfg.c **** 		/* UDB_PA_0 Starting address: CYDEV_UDB_PA0_BASE */
 603:Generated_Source\PSoC4/cyfitter_cfg.c **** 		CY_SET_REG32((void *)(CYDEV_UDB_PA0_BASE), 0x00990000u);
 468              		.loc 1 603 0
 469 0194 9923     		movs	r3, #153
 470 0196 1B04     		lsls	r3, r3, #16
 471 0198 1F4A     		ldr	r2, .L20+32
 472 019a 1360     		str	r3, [r2]
 604:Generated_Source\PSoC4/cyfitter_cfg.c **** 		CY_SET_REG32((void *)(CYREG_UDB_PA0_CFG8), 0x08000000u);
 473              		.loc 1 604 0
 474 019c 8021     		movs	r1, #128
 475 019e 0905     		lsls	r1, r1, #20
 476 01a0 1E4A     		ldr	r2, .L20+36
 477 01a2 1160     		str	r1, [r2]
 605:Generated_Source\PSoC4/cyfitter_cfg.c **** 
 606:Generated_Source\PSoC4/cyfitter_cfg.c **** 		/* UDB_PA_1 Starting address: CYDEV_UDB_PA1_BASE */
 607:Generated_Source\PSoC4/cyfitter_cfg.c **** 		CY_SET_REG32((void *)(CYDEV_UDB_PA1_BASE), 0x00990000u);
 478              		.loc 1 607 0
 479 01a4 1E4A     		ldr	r2, .L20+40
 480 01a6 1360     		str	r3, [r2]
 608:Generated_Source\PSoC4/cyfitter_cfg.c **** 		CY_SET_REG32((void *)(CYREG_UDB_PA1_CFG8), 0x00290000u);
 481              		.loc 1 608 0
 482 01a8 A422     		movs	r2, #164
 483 01aa 9203     		lsls	r2, r2, #14
 484 01ac 1D4B     		ldr	r3, .L20+44
 485 01ae 1A60     		str	r2, [r3]
 609:Generated_Source\PSoC4/cyfitter_cfg.c **** 
 610:Generated_Source\PSoC4/cyfitter_cfg.c **** 		/* INT_SELECT Starting address: CYDEV_CPUSS_INT_SEL */
 611:Generated_Source\PSoC4/cyfitter_cfg.c **** 		CY_SET_REG32((void *)(CYREG_CPUSS_INT_SEL), 0x00000002u);
 486              		.loc 1 611 0
 487 01b0 0223     		movs	r3, #2
ARM GAS  C:\Users\rad1an\AppData\Local\Temp\cc46Ityd.s 			page 21


 488 01b2 1D4A     		ldr	r2, .L20+48
 489 01b4 1360     		str	r3, [r2]
 612:Generated_Source\PSoC4/cyfitter_cfg.c **** 
 613:Generated_Source\PSoC4/cyfitter_cfg.c **** 		/* INT_CONFIG Starting address: CYDEV_UDB_INT_CFG */
 614:Generated_Source\PSoC4/cyfitter_cfg.c **** 		CY_SET_REG32((void *)(CYREG_UDB_INT_CFG), 0x00000002u);
 490              		.loc 1 614 0
 491 01b6 1D4A     		ldr	r2, .L20+52
 492 01b8 1360     		str	r3, [r2]
 615:Generated_Source\PSoC4/cyfitter_cfg.c **** 
 616:Generated_Source\PSoC4/cyfitter_cfg.c **** 		/* Enable UDB array and digital routing */
 617:Generated_Source\PSoC4/cyfitter_cfg.c **** 		CY_SET_XTND_REG8((void *)CYREG_UDB_UDBIF_WAIT_CFG, (uint8)((CY_GET_XTND_REG8((void *)CYREG_UDB_UD
 493              		.loc 1 617 0
 494 01ba 1D49     		ldr	r1, .L20+56
 495 01bc 0B78     		ldrb	r3, [r1]
 496 01be 3C22     		movs	r2, #60
 497 01c0 9343     		bics	r3, r2
 498 01c2 1422     		movs	r2, #20
 499 01c4 1343     		orrs	r3, r2
 500 01c6 DBB2     		uxtb	r3, r3
 501 01c8 0B70     		strb	r3, [r1]
 618:Generated_Source\PSoC4/cyfitter_cfg.c **** 		CY_SET_XTND_REG8((void *)CYREG_UDB_UDBIF_BANK_CTL, (uint8)(CY_GET_XTND_REG8((void *)CYREG_UDB_UDB
 502              		.loc 1 618 0
 503 01ca 1A4A     		ldr	r2, .L20+60
 504 01cc 1178     		ldrb	r1, [r2]
 505 01ce 1623     		movs	r3, #22
 506 01d0 0B43     		orrs	r3, r1
 507 01d2 DBB2     		uxtb	r3, r3
 508 01d4 1370     		strb	r3, [r2]
 509              	.LBE3:
 619:Generated_Source\PSoC4/cyfitter_cfg.c **** 	}
 620:Generated_Source\PSoC4/cyfitter_cfg.c **** 
 621:Generated_Source\PSoC4/cyfitter_cfg.c **** 	/* Perform second pass device configuration. These items must be configured in specific order afte
 622:Generated_Source\PSoC4/cyfitter_cfg.c **** 	/* IOPINS0_0 Starting address: CYDEV_GPIO_PRT0_BASE */
 623:Generated_Source\PSoC4/cyfitter_cfg.c **** 	CY_SET_REG32((void *)(CYDEV_GPIO_PRT0_BASE), 0x00000020u);
 510              		.loc 1 623 0
 511 01d6 2022     		movs	r2, #32
 512 01d8 174B     		ldr	r3, .L20+64
 513 01da 1A60     		str	r2, [r3]
 624:Generated_Source\PSoC4/cyfitter_cfg.c **** 	CY_SET_REG32((void *)(CYREG_GPIO_PRT0_PC), 0x00DB6000u);
 514              		.loc 1 624 0
 515 01dc 174A     		ldr	r2, .L20+68
 516 01de 184B     		ldr	r3, .L20+72
 517 01e0 1A60     		str	r2, [r3]
 625:Generated_Source\PSoC4/cyfitter_cfg.c **** 
 626:Generated_Source\PSoC4/cyfitter_cfg.c **** 	/* IOPINS0_1 Starting address: CYDEV_GPIO_PRT1_BASE */
 627:Generated_Source\PSoC4/cyfitter_cfg.c **** 	CY_SET_REG32((void *)(CYDEV_GPIO_PRT1_BASE), 0x00000009u);
 518              		.loc 1 627 0
 519 01e2 0922     		movs	r2, #9
 520 01e4 174B     		ldr	r3, .L20+76
 521 01e6 1A60     		str	r2, [r3]
 628:Generated_Source\PSoC4/cyfitter_cfg.c **** 	CY_SET_REG32((void *)(CYREG_GPIO_PRT1_PC), 0x00000DB6u);
 522              		.loc 1 628 0
 523 01e8 174A     		ldr	r2, .L20+80
 524 01ea 184B     		ldr	r3, .L20+84
 525 01ec 1A60     		str	r2, [r3]
 629:Generated_Source\PSoC4/cyfitter_cfg.c **** 
 630:Generated_Source\PSoC4/cyfitter_cfg.c **** 
ARM GAS  C:\Users\rad1an\AppData\Local\Temp\cc46Ityd.s 			page 22


 631:Generated_Source\PSoC4/cyfitter_cfg.c **** 	/* Setup clocks based on selections from Clock DWR */
 632:Generated_Source\PSoC4/cyfitter_cfg.c **** 	ClockSetup();
 526              		.loc 1 632 0
 527 01ee FFF707FF 		bl	ClockSetup
 528              	.LVL37:
 633:Generated_Source\PSoC4/cyfitter_cfg.c **** 
 634:Generated_Source\PSoC4/cyfitter_cfg.c **** 	/* Perform basic analog initialization to defaults */
 635:Generated_Source\PSoC4/cyfitter_cfg.c **** 	AnalogSetDefault();
 529              		.loc 1 635 0
 530 01f2 FFF7FEFF 		bl	AnalogSetDefault
 531              	.LVL38:
 636:Generated_Source\PSoC4/cyfitter_cfg.c **** 
 637:Generated_Source\PSoC4/cyfitter_cfg.c **** }
 532              		.loc 1 637 0
 533              		@ sp needed
 534              	.LVL39:
 535 01f6 70BD     		pop	{r4, r5, r6, pc}
 536              	.L21:
 537              		.align	2
 538              	.L20:
 539 01f8 6CF02E40 		.word	1076818028
 540 01fc 1C700F40 		.word	1074753564
 541 0200 00000000 		.word	.LANCHOR0
 542 0204 80010000 		.word	.LANCHOR1
 543 0208 000030EE 		.word	-298844160
 544 020c 00000240 		.word	1073872896
 545 0210 03300000 		.word	12291
 546 0214 00010240 		.word	1073873152
 547 0218 00500F40 		.word	1074745344
 548 021c 08500F40 		.word	1074745352
 549 0220 10500F40 		.word	1074745360
 550 0224 18500F40 		.word	1074745368
 551 0228 20001040 		.word	1074790432
 552 022c 00800F40 		.word	1074757632
 553 0230 01700F40 		.word	1074753537
 554 0234 00700F40 		.word	1074753536
 555 0238 00000440 		.word	1074003968
 556 023c 0060DB00 		.word	14376960
 557 0240 08000440 		.word	1074003976
 558 0244 00010440 		.word	1074004224
 559 0248 B60D0000 		.word	3510
 560 024c 08010440 		.word	1074004232
 561              		.cfi_endproc
 562              	.LFE8:
 563              		.size	cyfitter_cfg, .-cyfitter_cfg
 564              		.section	.rodata
 565              		.align	2
 566              		.set	.LANCHOR0,. + 0
 567              		.set	.LANCHOR1,. + 384
 568              		.type	cfg_memset_list.4924, %object
 569              		.size	cfg_memset_list.4924, 18
 570              	cfg_memset_list.4924:
 571 0000 00300F40 		.word	1074737152
 572 0004 0002     		.short	512
 573 0006 80320F40 		.4byte	1074737792
 574 000a 8001     		.short	384
 575 000c 00400F40 		.word	1074741248
ARM GAS  C:\Users\rad1an\AppData\Local\Temp\cc46Ityd.s 			page 23


 576 0010 0004     		.short	1024
 577 0012 0000     		.space	2
 578              		.type	cfg_memcpy_list.4926, %object
 579              		.size	cfg_memcpy_list.4926, 10
 580              	cfg_memcpy_list.4926:
 581 0014 00320F40 		.word	1074737664
 582 0018 D4010000 		.word	BS_UDB_0_0_1_CONFIG_VAL.4925
 583 001c 8000     		.short	128
 584 001e 0000     		.space	2
 585              		.type	cy_cfg_data_table.4914, %object
 586              		.size	cy_cfg_data_table.4914, 404
 587              	cy_cfg_data_table.4914:
 588 0020 82       		.byte	-126
 589 0021 1F       		.byte	31
 590 0022 3A       		.byte	58
 591 0023 03       		.byte	3
 592 0024 58       		.byte	88
 593 0025 04       		.byte	4
 594 0026 5C       		.byte	92
 595 0027 03       		.byte	3
 596 0028 5F       		.byte	95
 597 0029 01       		.byte	1
 598 002a 84       		.byte	-124
 599 002b 38       		.byte	56
 600 002c 88       		.byte	-120
 601 002d 4D       		.byte	77
 602 002e 8A       		.byte	-118
 603 002f 10       		.byte	16
 604 0030 94       		.byte	-108
 605 0031 50       		.byte	80
 606 0032 95       		.byte	-107
 607 0033 03       		.byte	3
 608 0034 96       		.byte	-106
 609 0035 27       		.byte	39
 610 0036 97       		.byte	-105
 611 0037 0C       		.byte	12
 612 0038 99       		.byte	-103
 613 0039 05       		.byte	5
 614 003a 9A       		.byte	-102
 615 003b 02       		.byte	2
 616 003c 9B       		.byte	-101
 617 003d 0A       		.byte	10
 618 003e 9D       		.byte	-99
 619 003f 02       		.byte	2
 620 0040 9F       		.byte	-97
 621 0041 0D       		.byte	13
 622 0042 A8       		.byte	-88
 623 0043 54       		.byte	84
 624 0044 AA       		.byte	-86
 625 0045 2B       		.byte	43
 626 0046 AD       		.byte	-83
 627 0047 09       		.byte	9
 628 0048 AF       		.byte	-81
 629 0049 06       		.byte	6
 630 004a B2       		.byte	-78
 631 004b 3C       		.byte	60
 632 004c B4       		.byte	-76
ARM GAS  C:\Users\rad1an\AppData\Local\Temp\cc46Ityd.s 			page 24


 633 004d 03       		.byte	3
 634 004e B6       		.byte	-74
 635 004f 40       		.byte	64
 636 0050 B7       		.byte	-73
 637 0051 0F       		.byte	15
 638 0052 B8       		.byte	-72
 639 0053 08       		.byte	8
 640 0054 BB       		.byte	-69
 641 0055 80       		.byte	-128
 642 0056 BE       		.byte	-66
 643 0057 40       		.byte	64
 644 0058 D4       		.byte	-44
 645 0059 09       		.byte	9
 646 005a D8       		.byte	-40
 647 005b 04       		.byte	4
 648 005c D9       		.byte	-39
 649 005d 04       		.byte	4
 650 005e DB       		.byte	-37
 651 005f 04       		.byte	4
 652 0060 DC       		.byte	-36
 653 0061 11       		.byte	17
 654 0062 DD       		.byte	-35
 655 0063 10       		.byte	16
 656 0064 DF       		.byte	-33
 657 0065 01       		.byte	1
 658 0066 05       		.byte	5
 659 0067 04       		.byte	4
 660 0068 07       		.byte	7
 661 0069 08       		.byte	8
 662 006a 0E       		.byte	14
 663 006b 08       		.byte	8
 664 006c 0F       		.byte	15
 665 006d 20       		.byte	32
 666 006e 12       		.byte	18
 667 006f 80       		.byte	-128
 668 0070 13       		.byte	19
 669 0071 01       		.byte	1
 670 0072 17       		.byte	23
 671 0073 20       		.byte	32
 672 0074 1A       		.byte	26
 673 0075 80       		.byte	-128
 674 0076 1D       		.byte	29
 675 0077 44       		.byte	68
 676 0078 1E       		.byte	30
 677 0079 08       		.byte	8
 678 007a 26       		.byte	38
 679 007b 80       		.byte	-128
 680 007c 2F       		.byte	47
 681 007d 02       		.byte	2
 682 007e 36       		.byte	54
 683 007f 80       		.byte	-128
 684 0080 37       		.byte	55
 685 0081 28       		.byte	40
 686 0082 5C       		.byte	92
 687 0083 20       		.byte	32
 688 0084 5E       		.byte	94
 689 0085 42       		.byte	66
ARM GAS  C:\Users\rad1an\AppData\Local\Temp\cc46Ityd.s 			page 25


 690 0086 5F       		.byte	95
 691 0087 04       		.byte	4
 692 0088 65       		.byte	101
 693 0089 40       		.byte	64
 694 008a C0       		.byte	-64
 695 008b 60       		.byte	96
 696 008c C2       		.byte	-62
 697 008d 60       		.byte	96
 698 008e C4       		.byte	-60
 699 008f 40       		.byte	64
 700 0090 CA       		.byte	-54
 701 0091 10       		.byte	16
 702 0092 CC       		.byte	-52
 703 0093 70       		.byte	112
 704 0094 D6       		.byte	-42
 705 0095 F0       		.byte	-16
 706 0096 D8       		.byte	-40
 707 0097 10       		.byte	16
 708 0098 80       		.byte	-128
 709 0099 1B       		.byte	27
 710 009a 84       		.byte	-124
 711 009b C4       		.byte	-60
 712 009c 86       		.byte	-122
 713 009d 28       		.byte	40
 714 009e 88       		.byte	-120
 715 009f 22       		.byte	34
 716 00a0 8A       		.byte	-118
 717 00a1 44       		.byte	68
 718 00a2 8C       		.byte	-116
 719 00a3 1A       		.byte	26
 720 00a4 8E       		.byte	-114
 721 00a5 01       		.byte	1
 722 00a6 90       		.byte	-112
 723 00a7 84       		.byte	-124
 724 00a8 92       		.byte	-110
 725 00a9 10       		.byte	16
 726 00aa 98       		.byte	-104
 727 00ab 80       		.byte	-128
 728 00ac 9C       		.byte	-100
 729 00ad 04       		.byte	4
 730 00ae 9E       		.byte	-98
 731 00af 1A       		.byte	26
 732 00b0 A0       		.byte	-96
 733 00b1 1B       		.byte	27
 734 00b2 A4       		.byte	-92
 735 00b3 1B       		.byte	27
 736 00b4 A8       		.byte	-88
 737 00b5 1B       		.byte	27
 738 00b6 AE       		.byte	-82
 739 00b7 01       		.byte	1
 740 00b8 B0       		.byte	-80
 741 00b9 E0       		.byte	-32
 742 00ba B2       		.byte	-78
 743 00bb 01       		.byte	1
 744 00bc B4       		.byte	-76
 745 00bd E0       		.byte	-32
 746 00be B6       		.byte	-74
ARM GAS  C:\Users\rad1an\AppData\Local\Temp\cc46Ityd.s 			page 26


 747 00bf 1E       		.byte	30
 748 00c0 BA       		.byte	-70
 749 00c1 A2       		.byte	-94
 750 00c2 BE       		.byte	-66
 751 00c3 04       		.byte	4
 752 00c4 C0       		.byte	-64
 753 00c5 64       		.byte	100
 754 00c6 C1       		.byte	-63
 755 00c7 03       		.byte	3
 756 00c8 C2       		.byte	-62
 757 00c9 10       		.byte	16
 758 00ca C5       		.byte	-59
 759 00cb 0E       		.byte	14
 760 00cc C6       		.byte	-58
 761 00cd F0       		.byte	-16
 762 00ce C7       		.byte	-57
 763 00cf DC       		.byte	-36
 764 00d0 C8       		.byte	-56
 765 00d1 39       		.byte	57
 766 00d2 C9       		.byte	-55
 767 00d3 FF       		.byte	-1
 768 00d4 CA       		.byte	-54
 769 00d5 FF       		.byte	-1
 770 00d6 CB       		.byte	-53
 771 00d7 FF       		.byte	-1
 772 00d8 CC       		.byte	-52
 773 00d9 22       		.byte	34
 774 00da CE       		.byte	-50
 775 00db F0       		.byte	-16
 776 00dc CF       		.byte	-49
 777 00dd 48       		.byte	72
 778 00de D0       		.byte	-48
 779 00df 04       		.byte	4
 780 00e0 D4       		.byte	-44
 781 00e1 40       		.byte	64
 782 00e2 D8       		.byte	-40
 783 00e3 04       		.byte	4
 784 00e4 DA       		.byte	-38
 785 00e5 04       		.byte	4
 786 00e6 DB       		.byte	-37
 787 00e7 04       		.byte	4
 788 00e8 DC       		.byte	-36
 789 00e9 01       		.byte	1
 790 00ea DD       		.byte	-35
 791 00eb 11       		.byte	17
 792 00ec DF       		.byte	-33
 793 00ed 01       		.byte	1
 794 00ee E2       		.byte	-30
 795 00ef C0       		.byte	-64
 796 00f0 E4       		.byte	-28
 797 00f1 40       		.byte	64
 798 00f2 E5       		.byte	-27
 799 00f3 02       		.byte	2
 800 00f4 E6       		.byte	-26
 801 00f5 10       		.byte	16
 802 00f6 E7       		.byte	-25
 803 00f7 12       		.byte	18
ARM GAS  C:\Users\rad1an\AppData\Local\Temp\cc46Ityd.s 			page 27


 804 00f8 E8       		.byte	-24
 805 00f9 C0       		.byte	-64
 806 00fa E9       		.byte	-23
 807 00fb 02       		.byte	2
 808 00fc EB       		.byte	-21
 809 00fd 12       		.byte	18
 810 00fe EC       		.byte	-20
 811 00ff 40       		.byte	64
 812 0100 ED       		.byte	-19
 813 0101 02       		.byte	2
 814 0102 EE       		.byte	-18
 815 0103 40       		.byte	64
 816 0104 EF       		.byte	-17
 817 0105 02       		.byte	2
 818 0106 03       		.byte	3
 819 0107 55       		.byte	85
 820 0108 05       		.byte	5
 821 0109 10       		.byte	16
 822 010a 06       		.byte	6
 823 010b 02       		.byte	2
 824 010c 07       		.byte	7
 825 010d 60       		.byte	96
 826 010e 08       		.byte	8
 827 010f 20       		.byte	32
 828 0110 0A       		.byte	10
 829 0111 82       		.byte	-126
 830 0112 0B       		.byte	11
 831 0113 08       		.byte	8
 832 0114 0E       		.byte	14
 833 0115 A0       		.byte	-96
 834 0116 0F       		.byte	15
 835 0117 0A       		.byte	10
 836 0118 10       		.byte	16
 837 0119 8A       		.byte	-118
 838 011a 11       		.byte	17
 839 011b 04       		.byte	4
 840 011c 15       		.byte	21
 841 011d 14       		.byte	20
 842 011e 17       		.byte	23
 843 011f 01       		.byte	1
 844 0120 18       		.byte	24
 845 0121 10       		.byte	16
 846 0122 1A       		.byte	26
 847 0123 82       		.byte	-126
 848 0124 1B       		.byte	27
 849 0125 13       		.byte	19
 850 0126 1D       		.byte	29
 851 0127 90       		.byte	-112
 852 0128 1E       		.byte	30
 853 0129 42       		.byte	66
 854 012a 26       		.byte	38
 855 012b 58       		.byte	88
 856 012c 27       		.byte	39
 857 012d 3C       		.byte	60
 858 012e 2F       		.byte	47
 859 012f 86       		.byte	-122
 860 0130 36       		.byte	54
ARM GAS  C:\Users\rad1an\AppData\Local\Temp\cc46Ityd.s 			page 28


 861 0131 40       		.byte	64
 862 0132 37       		.byte	55
 863 0133 29       		.byte	41
 864 0134 3C       		.byte	60
 865 0135 80       		.byte	-128
 866 0136 3D       		.byte	61
 867 0137 04       		.byte	4
 868 0138 3E       		.byte	62
 869 0139 10       		.byte	16
 870 013a 41       		.byte	65
 871 013b 80       		.byte	-128
 872 013c 43       		.byte	67
 873 013d 06       		.byte	6
 874 013e 45       		.byte	69
 875 013f 80       		.byte	-128
 876 0140 47       		.byte	71
 877 0141 28       		.byte	40
 878 0142 48       		.byte	72
 879 0143 02       		.byte	2
 880 0144 49       		.byte	73
 881 0145 40       		.byte	64
 882 0146 4A       		.byte	74
 883 0147 08       		.byte	8
 884 0148 4B       		.byte	75
 885 0149 04       		.byte	4
 886 014a 4F       		.byte	79
 887 014b 28       		.byte	40
 888 014c 50       		.byte	80
 889 014d 02       		.byte	2
 890 014e 51       		.byte	81
 891 014f 20       		.byte	32
 892 0150 53       		.byte	83
 893 0151 04       		.byte	4
 894 0152 60       		.byte	96
 895 0153 10       		.byte	16
 896 0154 61       		.byte	97
 897 0155 60       		.byte	96
 898 0156 67       		.byte	103
 899 0157 01       		.byte	1
 900 0158 6C       		.byte	108
 901 0159 08       		.byte	8
 902 015a 6D       		.byte	109
 903 015b 14       		.byte	20
 904 015c 6E       		.byte	110
 905 015d 10       		.byte	16
 906 015e 6F       		.byte	111
 907 015f C1       		.byte	-63
 908 0160 74       		.byte	116
 909 0161 C0       		.byte	-64
 910 0162 76       		.byte	118
 911 0163 02       		.byte	2
 912 0164 8D       		.byte	-115
 913 0165 04       		.byte	4
 914 0166 8E       		.byte	-114
 915 0167 04       		.byte	4
 916 0168 93       		.byte	-109
 917 0169 01       		.byte	1
ARM GAS  C:\Users\rad1an\AppData\Local\Temp\cc46Ityd.s 			page 29


 918 016a 96       		.byte	-106
 919 016b 40       		.byte	64
 920 016c 97       		.byte	-105
 921 016d 04       		.byte	4
 922 016e 99       		.byte	-103
 923 016f 04       		.byte	4
 924 0170 9C       		.byte	-100
 925 0171 20       		.byte	32
 926 0172 9D       		.byte	-99
 927 0173 10       		.byte	16
 928 0174 9F       		.byte	-97
 929 0175 28       		.byte	40
 930 0176 A2       		.byte	-94
 931 0177 04       		.byte	4
 932 0178 A6       		.byte	-90
 933 0179 01       		.byte	1
 934 017a A7       		.byte	-89
 935 017b 12       		.byte	18
 936 017c AA       		.byte	-86
 937 017d 40       		.byte	64
 938 017e B5       		.byte	-75
 939 017f 10       		.byte	16
 940 0180 C0       		.byte	-64
 941 0181 FF       		.byte	-1
 942 0182 C2       		.byte	-62
 943 0183 FB       		.byte	-5
 944 0184 C4       		.byte	-60
 945 0185 7F       		.byte	127
 946 0186 CA       		.byte	-54
 947 0187 B0       		.byte	-80
 948 0188 CC       		.byte	-52
 949 0189 F0       		.byte	-16
 950 018a CE       		.byte	-50
 951 018b 70       		.byte	112
 952 018c D0       		.byte	-48
 953 018d 7B       		.byte	123
 954 018e D2       		.byte	-46
 955 018f 24       		.byte	36
 956 0190 D8       		.byte	-40
 957 0191 1E       		.byte	30
 958 0192 E2       		.byte	-30
 959 0193 50       		.byte	80
 960 0194 EA       		.byte	-22
 961 0195 40       		.byte	64
 962 0196 63       		.byte	99
 963 0197 08       		.byte	8
 964 0198 D8       		.byte	-40
 965 0199 40       		.byte	64
 966 019a 50       		.byte	80
 967 019b 04       		.byte	4
 968 019c 57       		.byte	87
 969 019d 04       		.byte	4
 970 019e 6F       		.byte	111
 971 019f 08       		.byte	8
 972 01a0 8C       		.byte	-116
 973 01a1 04       		.byte	4
 974 01a2 8F       		.byte	-113
ARM GAS  C:\Users\rad1an\AppData\Local\Temp\cc46Ityd.s 			page 30


 975 01a3 04       		.byte	4
 976 01a4 A3       		.byte	-93
 977 01a5 08       		.byte	8
 978 01a6 AB       		.byte	-85
 979 01a7 08       		.byte	8
 980 01a8 B7       		.byte	-73
 981 01a9 04       		.byte	4
 982 01aa D4       		.byte	-44
 983 01ab 60       		.byte	96
 984 01ac DA       		.byte	-38
 985 01ad 80       		.byte	-128
 986 01ae EE       		.byte	-18
 987 01af 80       		.byte	-128
 988 01b0 01       		.byte	1
 989 01b1 0A       		.byte	10
 990 01b2 10       		.byte	16
 991 01b3 0A       		.byte	10
 992              		.type	cy_cfg_addr_table.4913, %object
 993              		.size	cy_cfg_addr_table.4913, 32
 994              	cy_cfg_addr_table.4913:
 995 01b4 01000F40 		.word	1074724865
 996 01b8 22300F40 		.word	1074737186
 997 01bc 19310F40 		.word	1074737433
 998 01c0 37320F40 		.word	1074737719
 999 01c4 48330F40 		.word	1074737992
 1000 01c8 02400F40 		.word	1074741250
 1001 01cc 0B410F40 		.word	1074741515
 1002 01d0 02600F40 		.word	1074749442
 1003              		.type	BS_UDB_0_0_1_CONFIG_VAL.4925, %object
 1004              		.size	BS_UDB_0_0_1_CONFIG_VAL.4925, 128
 1005              	BS_UDB_0_0_1_CONFIG_VAL.4925:
 1006 01d4 09       		.byte	9
 1007 01d5 00       		.byte	0
 1008 01d6 00       		.byte	0
 1009 01d7 00       		.byte	0
 1010 01d8 14       		.byte	20
 1011 01d9 98       		.byte	-104
 1012 01da 20       		.byte	32
 1013 01db 02       		.byte	2
 1014 01dc 02       		.byte	2
 1015 01dd 02       		.byte	2
 1016 01de 00       		.byte	0
 1017 01df 98       		.byte	-104
 1018 01e0 09       		.byte	9
 1019 01e1 9A       		.byte	-102
 1020 01e2 00       		.byte	0
 1021 01e3 00       		.byte	0
 1022 01e4 08       		.byte	8
 1023 01e5 98       		.byte	-104
 1024 01e6 00       		.byte	0
 1025 01e7 02       		.byte	2
 1026 01e8 0E       		.byte	14
 1027 01e9 13       		.byte	19
 1028 01ea 70       		.byte	112
 1029 01eb 64       		.byte	100
 1030 01ec C0       		.byte	-64
 1031 01ed 21       		.byte	33
ARM GAS  C:\Users\rad1an\AppData\Local\Temp\cc46Ityd.s 			page 31


 1032 01ee 00       		.byte	0
 1033 01ef D8       		.byte	-40
 1034 01f0 AC       		.byte	-84
 1035 01f1 38       		.byte	56
 1036 01f2 12       		.byte	18
 1037 01f3 C0       		.byte	-64
 1038 01f4 08       		.byte	8
 1039 01f5 9A       		.byte	-102
 1040 01f6 01       		.byte	1
 1041 01f7 00       		.byte	0
 1042 01f8 09       		.byte	9
 1043 01f9 00       		.byte	0
 1044 01fa 00       		.byte	0
 1045 01fb 00       		.byte	0
 1046 01fc 01       		.byte	1
 1047 01fd 02       		.byte	2
 1048 01fe 08       		.byte	8
 1049 01ff 00       		.byte	0
 1050 0200 00       		.byte	0
 1051 0201 FC       		.byte	-4
 1052 0202 00       		.byte	0
 1053 0203 03       		.byte	3
 1054 0204 10       		.byte	16
 1055 0205 00       		.byte	0
 1056 0206 00       		.byte	0
 1057 0207 0F       		.byte	15
 1058 0208 FE       		.byte	-2
 1059 0209 13       		.byte	19
 1060 020a 01       		.byte	1
 1061 020b E0       		.byte	-32
 1062 020c 20       		.byte	32
 1063 020d 00       		.byte	0
 1064 020e 00       		.byte	0
 1065 020f 88       		.byte	-120
 1066 0210 00       		.byte	0
 1067 0211 00       		.byte	0
 1068 0212 41       		.byte	65
 1069 0213 00       		.byte	0
 1070 0214 26       		.byte	38
 1071 0215 03       		.byte	3
 1072 0216 10       		.byte	16
 1073 0217 00       		.byte	0
 1074 0218 00       		.byte	0
 1075 0219 0B       		.byte	11
 1076 021a 00       		.byte	0
 1077 021b 00       		.byte	0
 1078 021c 01       		.byte	1
 1079 021d FF       		.byte	-1
 1080 021e FF       		.byte	-1
 1081 021f FF       		.byte	-1
 1082 0220 03       		.byte	3
 1083 0221 00       		.byte	0
 1084 0222 70       		.byte	112
 1085 0223 48       		.byte	72
 1086 0224 04       		.byte	4
 1087 0225 00       		.byte	0
 1088 0226 00       		.byte	0
ARM GAS  C:\Users\rad1an\AppData\Local\Temp\cc46Ityd.s 			page 32


 1089 0227 00       		.byte	0
 1090 0228 00       		.byte	0
 1091 0229 00       		.byte	0
 1092 022a 02       		.byte	2
 1093 022b 20       		.byte	32
 1094 022c 04       		.byte	4
 1095 022d 04       		.byte	4
 1096 022e 04       		.byte	4
 1097 022f 04       		.byte	4
 1098 0230 11       		.byte	17
 1099 0231 11       		.byte	17
 1100 0232 00       		.byte	0
 1101 0233 01       		.byte	1
 1102 0234 00       		.byte	0
 1103 0235 00       		.byte	0
 1104 0236 C0       		.byte	-64
 1105 0237 00       		.byte	0
 1106 0238 40       		.byte	64
 1107 0239 02       		.byte	2
 1108 023a 10       		.byte	16
 1109 023b 12       		.byte	18
 1110 023c C0       		.byte	-64
 1111 023d 02       		.byte	2
 1112 023e 00       		.byte	0
 1113 023f 12       		.byte	18
 1114 0240 40       		.byte	64
 1115 0241 02       		.byte	2
 1116 0242 40       		.byte	64
 1117 0243 02       		.byte	2
 1118 0244 00       		.byte	0
 1119 0245 00       		.byte	0
 1120 0246 00       		.byte	0
 1121 0247 00       		.byte	0
 1122 0248 00       		.byte	0
 1123 0249 00       		.byte	0
 1124 024a 00       		.byte	0
 1125 024b 00       		.byte	0
 1126 024c 00       		.byte	0
 1127 024d 00       		.byte	0
 1128 024e 00       		.byte	0
 1129 024f 00       		.byte	0
 1130 0250 00       		.byte	0
 1131 0251 00       		.byte	0
 1132 0252 00       		.byte	0
 1133 0253 00       		.byte	0
 1134              		.text
 1135              	.Letext0:
 1136              		.file 2 "c:\\program files (x86)\\cypress\\psoc creator\\4.4\\psoc creator\\import\\gnu\\arm\\5.4.
 1137              		.file 3 "Generated_Source\\PSoC4\\cytypes.h"
 1138              		.file 4 "Generated_Source\\PSoC4\\CyLFClk.h"
 1139              		.file 5 "Generated_Source\\PSoC4\\CyLib.h"