ARM GAS  C:\Users\rad1an\AppData\Local\Temp\ccJUlmne.s 			page 1


   1              		.syntax unified
   2              		.cpu cortex-m0
   3              		.fpu softvfp
   4              		.eabi_attribute 20, 1
   5              		.eabi_attribute 21, 1
   6              		.eabi_attribute 23, 3
   7              		.eabi_attribute 24, 1
   8              		.eabi_attribute 25, 1
   9              		.eabi_attribute 26, 1
  10              		.eabi_attribute 30, 1
  11              		.eabi_attribute 34, 0
  12              		.eabi_attribute 18, 4
  13              		.thumb
  14              		.syntax unified
  15              		.file	"main.c"
  16              		.text
  17              	.Ltext0:
  18              		.cfi_sections	.debug_frame
  19              		.section	.text.isr_100Hz,"ax",%progbits
  20              		.align	2
  21              		.global	isr_100Hz
  22              		.code	16
  23              		.thumb_func
  24              		.type	isr_100Hz, %function
  25              	isr_100Hz:
  26              	.LFB35:
  27              		.file 1 "main.c"
   1:main.c        **** /* ========================================
   2:main.c        ****  *
   3:main.c        ****  * Copyright YOUR COMPANY, THE YEAR
   4:main.c        ****  * All Rights Reserved
   5:main.c        ****  * UNPUBLISHED, LICENSED SOFTWARE.
   6:main.c        ****  *
   7:main.c        ****  * CONFIDENTIAL AND PROPRIETARY INFORMATION
   8:main.c        ****  * WHICH IS THE PROPERTY OF your company.
   9:main.c        ****  *
  10:main.c        ****  * ========================================
  11:main.c        ****  */
  12:main.c        **** #include "project.h"
  13:main.c        **** 
  14:main.c        **** void out7seg(int16, uint8);
  15:main.c        **** 
  16:main.c        **** uint16 indyk[4] = {0x10FF, 0x20FF, 0x40FF, 0x80FF};
  17:main.c        **** const uint8 KOD7[10] = {0x03, 0x9F, 0x25, 0x0D, 0x99,
  18:main.c        ****                         0x49, 0x41, 0x1F, 0x01, 0x09};
  19:main.c        **** const uint8 MINUS = 0xFD;
  20:main.c        **** 
  21:main.c        **** CY_ISR(isr_100Hz) {
  28              		.loc 1 21 0
  29              		.cfi_startproc
  30              		@ args = 0, pretend = 0, frame = 0
  31              		@ frame_needed = 0, uses_anonymous_args = 0
  32 0000 10B5     		push	{r4, lr}
  33              		.cfi_def_cfa_offset 8
  34              		.cfi_offset 4, -8
  35              		.cfi_offset 14, -4
  22:main.c        ****   static uint8 N_indyk = 0u;
ARM GAS  C:\Users\rad1an\AppData\Local\Temp\ccJUlmne.s 			page 2


  23:main.c        **** 
  24:main.c        ****   SPIM_WriteTxData(indyk[N_indyk]);
  36              		.loc 1 24 0
  37 0002 064C     		ldr	r4, .L2
  38 0004 2378     		ldrb	r3, [r4]
  39 0006 5B00     		lsls	r3, r3, #1
  40 0008 054A     		ldr	r2, .L2+4
  41 000a 985A     		ldrh	r0, [r3, r2]
  42 000c FFF7FEFF 		bl	SPIM_WriteTxData
  43              	.LVL0:
  25:main.c        **** 
  26:main.c        ****   N_indyk++;
  44              		.loc 1 26 0
  45 0010 2378     		ldrb	r3, [r4]
  46 0012 0133     		adds	r3, r3, #1
  27:main.c        ****   N_indyk &= 3;
  47              		.loc 1 27 0
  48 0014 0322     		movs	r2, #3
  49 0016 1340     		ands	r3, r2
  50 0018 2370     		strb	r3, [r4]
  28:main.c        **** }
  51              		.loc 1 28 0
  52              		@ sp needed
  53 001a 10BD     		pop	{r4, pc}
  54              	.L3:
  55              		.align	2
  56              	.L2:
  57 001c 00000000 		.word	.LANCHOR1
  58 0020 00000000 		.word	.LANCHOR0
  59              		.cfi_endproc
  60              	.LFE35:
  61              		.size	isr_100Hz, .-isr_100Hz
  62              		.global	__aeabi_idivmod
  63              		.global	__aeabi_idiv
  64              		.section	.text.out7seg,"ax",%progbits
  65              		.align	2
  66              		.global	out7seg
  67              		.code	16
  68              		.thumb_func
  69              		.type	out7seg, %function
  70              	out7seg:
  71              	.LFB36:
  29:main.c        **** 
  30:main.c        **** void out7seg(int16 data, uint8 point_location) {
  72              		.loc 1 30 0
  73              		.cfi_startproc
  74              		@ args = 0, pretend = 0, frame = 0
  75              		@ frame_needed = 0, uses_anonymous_args = 0
  76              	.LVL1:
  77 0000 F8B5     		push	{r3, r4, r5, r6, r7, lr}
  78              		.cfi_def_cfa_offset 24
  79              		.cfi_offset 3, -24
  80              		.cfi_offset 4, -20
  81              		.cfi_offset 5, -16
  82              		.cfi_offset 6, -12
  83              		.cfi_offset 7, -8
  84              		.cfi_offset 14, -4
ARM GAS  C:\Users\rad1an\AppData\Local\Temp\ccJUlmne.s 			page 3


  85 0002 5F46     		mov	r7, fp
  86 0004 5646     		mov	r6, r10
  87 0006 4D46     		mov	r5, r9
  88 0008 4446     		mov	r4, r8
  89 000a F0B4     		push	{r4, r5, r6, r7}
  90              		.cfi_def_cfa_offset 40
  91              		.cfi_offset 8, -40
  92              		.cfi_offset 9, -36
  93              		.cfi_offset 10, -32
  94              		.cfi_offset 11, -28
  95 000c 8146     		mov	r9, r0
  96 000e 8846     		mov	r8, r1
  31:main.c        ****   uint8 i;
  32:main.c        ****   uint8 sign = data < 0;
  97              		.loc 1 32 0
  98 0010 C30F     		lsrs	r3, r0, #31
  99 0012 9A46     		mov	r10, r3
 100              	.LVL2:
  33:main.c        ****   if (data < 0)
 101              		.loc 1 33 0
 102 0014 0028     		cmp	r0, #0
 103 0016 02DA     		bge	.L13
  34:main.c        ****     data = -data;
 104              		.loc 1 34 0
 105 0018 4542     		rsbs	r5, r0, #0
 106 001a 2DB2     		sxth	r5, r5
 107              	.LVL3:
 108 001c 00E0     		b	.L5
 109              	.LVL4:
 110              	.L13:
 111 001e 0500     		movs	r5, r0
 112              	.LVL5:
 113              	.L5:
 114 0020 0024     		movs	r4, #0
 115 0022 1AE0     		b	.L6
 116              	.LVL6:
 117              	.L8:
  35:main.c        ****   for (i = 0; i < 4 - sign; i++) {
  36:main.c        ****     indyk[i] &= 0xFF00;
 118              		.loc 1 36 0
 119 0024 244F     		ldr	r7, .L14
 120 0026 6300     		lsls	r3, r4, #1
 121 0028 9B46     		mov	fp, r3
 122 002a DE5B     		ldrh	r6, [r3, r7]
 123 002c FF23     		movs	r3, #255
 124 002e 9E43     		bics	r6, r3
 125 0030 5B46     		mov	r3, fp
 126 0032 DE53     		strh	r6, [r3, r7]
  37:main.c        ****     indyk[i] |= (uint16)KOD7[data % 10];
 127              		.loc 1 37 0
 128 0034 0A21     		movs	r1, #10
 129 0036 2800     		movs	r0, r5
 130 0038 FFF7FEFF 		bl	__aeabi_idivmod
 131              	.LVL7:
 132 003c 09B2     		sxth	r1, r1
 133 003e 1F4B     		ldr	r3, .L14+4
 134 0040 5B5C     		ldrb	r3, [r3, r1]
ARM GAS  C:\Users\rad1an\AppData\Local\Temp\ccJUlmne.s 			page 4


 135 0042 1E43     		orrs	r6, r3
 136 0044 5B46     		mov	r3, fp
 137 0046 DE53     		strh	r6, [r3, r7]
  38:main.c        ****     data /= 10;
 138              		.loc 1 38 0
 139 0048 0A21     		movs	r1, #10
 140 004a 2800     		movs	r0, r5
 141 004c FFF7FEFF 		bl	__aeabi_idiv
 142              	.LVL8:
 143 0050 05B2     		sxth	r5, r0
 144              	.LVL9:
  39:main.c        ****     if (data == 0)
 145              		.loc 1 39 0
 146 0052 002D     		cmp	r5, #0
 147 0054 06D0     		beq	.L7
  35:main.c        ****     indyk[i] &= 0xFF00;
 148              		.loc 1 35 0 discriminator 2
 149 0056 0134     		adds	r4, r4, #1
 150              	.LVL10:
 151 0058 E4B2     		uxtb	r4, r4
 152              	.LVL11:
 153              	.L6:
  35:main.c        ****     indyk[i] &= 0xFF00;
 154              		.loc 1 35 0 is_stmt 0 discriminator 1
 155 005a 0423     		movs	r3, #4
 156 005c 5246     		mov	r2, r10
 157 005e 9B1A     		subs	r3, r3, r2
 158 0060 9C42     		cmp	r4, r3
 159 0062 DFDB     		blt	.L8
 160              	.L7:
  40:main.c        ****       break;
  41:main.c        ****   }
  42:main.c        ****   if (sign) {
 161              		.loc 1 42 0 is_stmt 1
 162 0064 4B46     		mov	r3, r9
 163 0066 002B     		cmp	r3, #0
 164 0068 09DA     		bge	.L9
  43:main.c        ****     i++;
 165              		.loc 1 43 0
 166 006a 0134     		adds	r4, r4, #1
 167              	.LVL12:
 168 006c E4B2     		uxtb	r4, r4
 169              	.LVL13:
  44:main.c        ****     indyk[i] &= 0xFF00;
 170              		.loc 1 44 0
 171 006e 1249     		ldr	r1, .L14
 172 0070 6000     		lsls	r0, r4, #1
 173 0072 435A     		ldrh	r3, [r0, r1]
 174 0074 FF22     		movs	r2, #255
 175 0076 9343     		bics	r3, r2
  45:main.c        ****     indyk[i] |= (uint16)MINUS;
 176              		.loc 1 45 0
 177 0078 FD22     		movs	r2, #253
 178 007a 1343     		orrs	r3, r2
 179 007c 4352     		strh	r3, [r0, r1]
 180              	.L9:
  46:main.c        ****   }
ARM GAS  C:\Users\rad1an\AppData\Local\Temp\ccJUlmne.s 			page 5


  47:main.c        **** 
  48:main.c        ****   for (i++; i < 4; i++) {
 181              		.loc 1 48 0
 182 007e 0134     		adds	r4, r4, #1
 183              	.LVL14:
 184 0080 E4B2     		uxtb	r4, r4
 185              	.LVL15:
 186 0082 07E0     		b	.L10
 187              	.L11:
  49:main.c        ****     indyk[i] |= 0x00FF;
 188              		.loc 1 49 0 discriminator 3
 189 0084 0C4A     		ldr	r2, .L14
 190 0086 6100     		lsls	r1, r4, #1
 191 0088 885A     		ldrh	r0, [r1, r2]
 192 008a FF23     		movs	r3, #255
 193 008c 0343     		orrs	r3, r0
 194 008e 8B52     		strh	r3, [r1, r2]
  48:main.c        ****     indyk[i] |= 0x00FF;
 195              		.loc 1 48 0 discriminator 3
 196 0090 0134     		adds	r4, r4, #1
 197              	.LVL16:
 198 0092 E4B2     		uxtb	r4, r4
 199              	.LVL17:
 200              	.L10:
  48:main.c        ****     indyk[i] |= 0x00FF;
 201              		.loc 1 48 0 is_stmt 0 discriminator 1
 202 0094 032C     		cmp	r4, #3
 203 0096 F5D9     		bls	.L11
  50:main.c        ****   }
  51:main.c        **** 
  52:main.c        ****   if (point_location <= 4) {
 204              		.loc 1 52 0 is_stmt 1
 205 0098 4346     		mov	r3, r8
 206 009a 042B     		cmp	r3, #4
 207 009c 05D8     		bhi	.L4
  53:main.c        ****     indyk[point_location] ^= 0x01;
 208              		.loc 1 53 0
 209 009e 064A     		ldr	r2, .L14
 210 00a0 5F00     		lsls	r7, r3, #1
 211 00a2 B95A     		ldrh	r1, [r7, r2]
 212 00a4 0123     		movs	r3, #1
 213 00a6 4B40     		eors	r3, r1
 214 00a8 BB52     		strh	r3, [r7, r2]
 215              	.L4:
  54:main.c        ****   }
  55:main.c        **** }
 216              		.loc 1 55 0
 217              		@ sp needed
 218              	.LVL18:
 219              	.LVL19:
 220              	.LVL20:
 221 00aa 3CBC     		pop	{r2, r3, r4, r5}
 222 00ac 9046     		mov	r8, r2
 223 00ae 9946     		mov	r9, r3
 224 00b0 A246     		mov	r10, r4
 225 00b2 AB46     		mov	fp, r5
 226 00b4 F8BD     		pop	{r3, r4, r5, r6, r7, pc}
ARM GAS  C:\Users\rad1an\AppData\Local\Temp\ccJUlmne.s 			page 6


 227              	.L15:
 228 00b6 C046     		.align	2
 229              	.L14:
 230 00b8 00000000 		.word	.LANCHOR0
 231 00bc 00000000 		.word	.LANCHOR2
 232              		.cfi_endproc
 233              	.LFE36:
 234              		.size	out7seg, .-out7seg
 235              		.section	.text.main,"ax",%progbits
 236              		.align	2
 237              		.global	main
 238              		.code	16
 239              		.thumb_func
 240              		.type	main, %function
 241              	main:
 242              	.LFB37:
  56:main.c        **** 
  57:main.c        **** 
  58:main.c        **** int main() {
 243              		.loc 1 58 0
 244              		.cfi_startproc
 245              		@ args = 0, pretend = 0, frame = 32
 246              		@ frame_needed = 0, uses_anonymous_args = 0
 247 0000 70B5     		push	{r4, r5, r6, lr}
 248              		.cfi_def_cfa_offset 16
 249              		.cfi_offset 4, -16
 250              		.cfi_offset 5, -12
 251              		.cfi_offset 6, -8
 252              		.cfi_offset 14, -4
 253 0002 88B0     		sub	sp, sp, #32
 254              		.cfi_def_cfa_offset 48
  59:main.c        ****   int OUTPUTS[8] = {0, 1, 0, 0, 0, 1, 1, 0};
 255              		.loc 1 59 0
 256 0004 6A46     		mov	r2, sp
 257 0006 264B     		ldr	r3, .L24
 258 0008 0C33     		adds	r3, r3, #12
 259 000a 13CB     		ldmia	r3!, {r0, r1, r4}
 260 000c 13C2     		stmia	r2!, {r0, r1, r4}
 261 000e 13CB     		ldmia	r3!, {r0, r1, r4}
 262 0010 13C2     		stmia	r2!, {r0, r1, r4}
 263 0012 03CB     		ldmia	r3!, {r0, r1}
 264 0014 03C2     		stmia	r2!, {r0, r1}
  60:main.c        ****   CyGlobalIntEnable;
 265              		.loc 1 60 0
 266              		.syntax divided
 267              	@ 60 "main.c" 1
 268 0016 62B6     		CPSIE   i
 269              	@ 0 "" 2
  61:main.c        **** 
  62:main.c        ****   SPIM_Start();
 270              		.loc 1 62 0
 271              		.thumb
 272              		.syntax unified
 273 0018 FFF7FEFF 		bl	SPIM_Start
 274              	.LVL21:
  63:main.c        ****   isr_100Hz_StartEx(isr_100Hz);
 275              		.loc 1 63 0
ARM GAS  C:\Users\rad1an\AppData\Local\Temp\ccJUlmne.s 			page 7


 276 001c 2148     		ldr	r0, .L24+4
 277 001e FFF7FEFF 		bl	isr_100Hz_StartEx
 278              	.LVL22:
 279              	.L21:
 280              	.LBB2:
  64:main.c        **** 
  65:main.c        ****   for (;;) {
  66:main.c        ****     for (uint8 a = 0; a <= 1; ++a) {
 281              		.loc 1 66 0
 282 0022 0026     		movs	r6, #0
 283 0024 39E0     		b	.L17
 284              	.LVL23:
 285              	.L18:
 286              	.LBB3:
 287              	.LBB4:
  67:main.c        ****         for (uint8 b = 0; b <= 1; ++b) {
  68:main.c        ****             for (uint8 c = 0; c <= 1; ++c) {
  69:main.c        ****                 Pin_A_Write(5 * a);
 288              		.loc 1 69 0 discriminator 3
 289 0026 B000     		lsls	r0, r6, #2
 290 0028 3018     		adds	r0, r6, r0
 291 002a C0B2     		uxtb	r0, r0
 292 002c FFF7FEFF 		bl	Pin_A_Write
 293              	.LVL24:
  70:main.c        ****                 Pin_B_Write(5 * b);
 294              		.loc 1 70 0 discriminator 3
 295 0030 A800     		lsls	r0, r5, #2
 296 0032 2818     		adds	r0, r5, r0
 297 0034 C0B2     		uxtb	r0, r0
 298 0036 FFF7FEFF 		bl	Pin_B_Write
 299              	.LVL25:
  71:main.c        ****                 Pin_C_Write(5 * c);
 300              		.loc 1 71 0 discriminator 3
 301 003a A000     		lsls	r0, r4, #2
 302 003c 2018     		adds	r0, r4, r0
 303 003e C0B2     		uxtb	r0, r0
 304 0040 FFF7FEFF 		bl	Pin_C_Write
 305              	.LVL26:
  72:main.c        ****                 out7seg(10000 + a*1000 + b*100 + c*10 + OUTPUTS[a*4 + b*2 + c], 1);
 306              		.loc 1 72 0 discriminator 3
 307 0044 7300     		lsls	r3, r6, #1
 308 0046 5B19     		adds	r3, r3, r5
 309 0048 5B00     		lsls	r3, r3, #1
 310 004a E318     		adds	r3, r4, r3
 311 004c 9B00     		lsls	r3, r3, #2
 312 004e 6A46     		mov	r2, sp
 313 0050 9B58     		ldr	r3, [r3, r2]
 314 0052 FA20     		movs	r0, #250
 315 0054 8000     		lsls	r0, r0, #2
 316 0056 7043     		muls	r0, r6
 317 0058 6422     		movs	r2, #100
 318 005a 6A43     		muls	r2, r5
 319 005c 8018     		adds	r0, r0, r2
 320 005e A100     		lsls	r1, r4, #2
 321 0060 6118     		adds	r1, r4, r1
 322 0062 4A00     		lsls	r2, r1, #1
 323 0064 8018     		adds	r0, r0, r2
ARM GAS  C:\Users\rad1an\AppData\Local\Temp\ccJUlmne.s 			page 8


 324 0066 C018     		adds	r0, r0, r3
 325 0068 0F4B     		ldr	r3, .L24+8
 326 006a 9C46     		mov	ip, r3
 327 006c 6044     		add	r0, r0, ip
 328 006e 00B2     		sxth	r0, r0
 329 0070 0121     		movs	r1, #1
 330 0072 FFF7FEFF 		bl	out7seg
 331              	.LVL27:
  73:main.c        ****                 CyDelay(2000);
 332              		.loc 1 73 0 discriminator 3
 333 0076 FA20     		movs	r0, #250
 334 0078 C000     		lsls	r0, r0, #3
 335 007a FFF7FEFF 		bl	CyDelay
 336              	.LVL28:
  68:main.c        ****                 Pin_A_Write(5 * a);
 337              		.loc 1 68 0 discriminator 3
 338 007e 0134     		adds	r4, r4, #1
 339              	.LVL29:
 340 0080 E4B2     		uxtb	r4, r4
 341              	.LVL30:
 342 0082 00E0     		b	.L19
 343              	.LVL31:
 344              	.L22:
 345              	.LBE4:
 346 0084 0024     		movs	r4, #0
 347              	.L19:
 348              	.LVL32:
 349              	.LBB5:
  68:main.c        ****                 Pin_A_Write(5 * a);
 350              		.loc 1 68 0 is_stmt 0 discriminator 1
 351 0086 012C     		cmp	r4, #1
 352 0088 CDD9     		bls	.L18
 353              	.LBE5:
  67:main.c        ****             for (uint8 c = 0; c <= 1; ++c) {
 354              		.loc 1 67 0 is_stmt 1 discriminator 2
 355 008a 0135     		adds	r5, r5, #1
 356              	.LVL33:
 357 008c EDB2     		uxtb	r5, r5
 358              	.LVL34:
 359 008e 00E0     		b	.L20
 360              	.LVL35:
 361              	.L23:
 362              	.LBE3:
 363 0090 0025     		movs	r5, #0
 364              	.L20:
 365              	.LVL36:
 366              	.LBB6:
  67:main.c        ****             for (uint8 c = 0; c <= 1; ++c) {
 367              		.loc 1 67 0 is_stmt 0 discriminator 1
 368 0092 012D     		cmp	r5, #1
 369 0094 F6D9     		bls	.L22
 370              	.LBE6:
  66:main.c        ****         for (uint8 b = 0; b <= 1; ++b) {
 371              		.loc 1 66 0 is_stmt 1 discriminator 2
 372 0096 0136     		adds	r6, r6, #1
 373              	.LVL37:
 374 0098 F6B2     		uxtb	r6, r6
ARM GAS  C:\Users\rad1an\AppData\Local\Temp\ccJUlmne.s 			page 9


 375              	.LVL38:
 376              	.L17:
  66:main.c        ****         for (uint8 b = 0; b <= 1; ++b) {
 377              		.loc 1 66 0 is_stmt 0 discriminator 1
 378 009a 012E     		cmp	r6, #1
 379 009c F8D9     		bls	.L23
 380 009e C0E7     		b	.L21
 381              	.L25:
 382              		.align	2
 383              	.L24:
 384 00a0 00000000 		.word	.LANCHOR2
 385 00a4 00000000 		.word	isr_100Hz
 386 00a8 10270000 		.word	10000
 387              	.LBE2:
 388              		.cfi_endproc
 389              	.LFE37:
 390              		.size	main, .-main
 391              		.global	MINUS
 392              		.global	KOD7
 393              		.global	indyk
 394              		.section	.rodata
 395              		.align	2
 396              		.set	.LANCHOR2,. + 0
 397              		.type	KOD7, %object
 398              		.size	KOD7, 10
 399              	KOD7:
 400 0000 03       		.byte	3
 401 0001 9F       		.byte	-97
 402 0002 25       		.byte	37
 403 0003 0D       		.byte	13
 404 0004 99       		.byte	-103
 405 0005 49       		.byte	73
 406 0006 41       		.byte	65
 407 0007 1F       		.byte	31
 408 0008 01       		.byte	1
 409 0009 09       		.byte	9
 410 000a 0000     		.space	2
 411              	.LC0:
 412 000c 00000000 		.word	0
 413 0010 01000000 		.word	1
 414 0014 00000000 		.word	0
 415 0018 00000000 		.word	0
 416 001c 00000000 		.word	0
 417 0020 01000000 		.word	1
 418 0024 01000000 		.word	1
 419 0028 00000000 		.word	0
 420              		.type	MINUS, %object
 421              		.size	MINUS, 1
 422              	MINUS:
 423 002c FD       		.byte	-3
 424              		.data
 425              		.align	2
 426              		.set	.LANCHOR0,. + 0
 427              		.type	indyk, %object
 428              		.size	indyk, 8
 429              	indyk:
 430 0000 FF10     		.short	4351
ARM GAS  C:\Users\rad1an\AppData\Local\Temp\ccJUlmne.s 			page 10


 431 0002 FF20     		.short	8447
 432 0004 FF40     		.short	16639
 433 0006 FF80     		.short	-32513
 434              		.bss
 435              		.set	.LANCHOR1,. + 0
 436              		.type	N_indyk.5526, %object
 437              		.size	N_indyk.5526, 1
 438              	N_indyk.5526:
 439 0000 00       		.space	1
 440              		.text
 441              	.Letext0:
 442              		.file 2 "Generated_Source\\PSoC4/cytypes.h"
 443              		.file 3 "Generated_Source\\PSoC4/SPIM.h"
 444              		.file 4 "Generated_Source\\PSoC4/Pin_A.h"
 445              		.file 5 "Generated_Source\\PSoC4/Pin_B.h"
 446              		.file 6 "Generated_Source\\PSoC4/Pin_C.h"
 447              		.file 7 "Generated_Source\\PSoC4/CyLib.h"
 448              		.file 8 "Generated_Source\\PSoC4/isr_100Hz.h"